ccollections
OrderedDict
p0
((lp1
(lp2
S'Compile: Primes Functional'
p3
a(lp4
(i__main__
BenchResult
p5
(dp6
S'real'
p7
F0.22
sS'is_compile'
p8
I01
sS'name'
p9
S'Primes Functional'
p10
sS'language'
p11
S'Swift'
p12
sS'page_reclaims'
p13
I15137
sS'sys'
p14
F0.06
sS'command'
p15
S'swiftc -O /Users/terhechte/Development/crossplatform-language-benchmarks/sources/prime_swift.swift -o /Users/terhechte/Development/crossplatform-language-benchmarks/builds/prime_swift'
p16
sS'user'
p17
F0.17
sS'resident_set_size'
p18
I96157696
sba(i__main__
BenchResult
p19
(dp20
g7
F0.11
sg8
I01
sg9
g10
sg11
S'Rust'
p21
sg13
I13990
sg14
F0.04
sg15
S'rustc -O /Users/terhechte/Development/crossplatform-language-benchmarks/sources/prime_rust.rs -o /Users/terhechte/Development/crossplatform-language-benchmarks/builds/prime_rust'
p22
sg17
F0.12
sg18
I92045312
sba(i__main__
BenchResult
p23
(dp24
g7
F0.4
sg8
I01
sg9
g10
sg11
S'C++'
p25
sg13
I11912
sg14
F0.04
sg15
S'clang++ -std=c++17 -O2 /Users/terhechte/Development/crossplatform-language-benchmarks/sources/prime_cpp.cpp -o /Users/terhechte/Development/crossplatform-language-benchmarks/builds/prime_cpp'
p26
sg17
F0.37
sg18
I125059072
sbaaa(lp27
g10
a(lp28
(i__main__
BenchResult
p29
(dp30
g7
F0.3
sg9
g10
sg11
g12
sg13
I223
sg14
F0.0
sg17
F0.29
sg18
I1687552
sS'fail'
p31
I00
sS'children'
p32
(lp33
(i__main__
BenchResult
p34
(dp35
g7
F0.34
sg13
I223
sg14
F0.0
sg15
S'/Users/terhechte/Development/crossplatform-language-benchmarks/builds/prime_swift'
p36
sg17
F0.29
sg18
I1687552
sba(i__main__
BenchResult
p37
(dp38
g7
F0.29
sg13
I223
sg14
F0.0
sg15
g36
sg17
F0.29
sg18
I1687552
sba(i__main__
BenchResult
p39
(dp40
g7
F0.29
sg13
I223
sg14
F0.0
sg15
g36
sg17
F0.29
sg18
I1687552
sba(i__main__
BenchResult
p41
(dp42
g7
F0.29
sg13
I223
sg14
F0.0
sg15
g36
sg17
F0.29
sg18
I1687552
sba(i__main__
BenchResult
p43
(dp44
g7
F0.29
sg13
I223
sg14
F0.0
sg15
g36
sg17
F0.29
sg18
I1687552
sbasba(i__main__
BenchResult
p45
(dp46
g7
F0.302
sg9
g10
sg11
g21
sg13
I197
sg14
F0.0
sg17
F0.29
sg18
I1376256
sg31
I00
sg32
(lp47
(i__main__
BenchResult
p48
(dp49
g7
F0.35
sg13
I197
sg14
F0.0
sg15
S'/Users/terhechte/Development/crossplatform-language-benchmarks/builds/prime_rust'
p50
sg17
F0.29
sg18
I1376256
sba(i__main__
BenchResult
p51
(dp52
g7
F0.29
sg13
I197
sg14
F0.0
sg15
g50
sg17
F0.29
sg18
I1376256
sba(i__main__
BenchResult
p53
(dp54
g7
F0.29
sg13
I197
sg14
F0.0
sg15
g50
sg17
F0.29
sg18
I1376256
sba(i__main__
BenchResult
p55
(dp56
g7
F0.29
sg13
I197
sg14
F0.0
sg15
g50
sg17
F0.29
sg18
I1376256
sba(i__main__
BenchResult
p57
(dp58
g7
F0.29
sg13
I197
sg14
F0.0
sg15
g50
sg17
F0.29
sg18
I1376256
sbasba(i__main__
BenchResult
p59
(dp60
g7
F0.302
sg9
g10
sg11
g25
sg13
I182
sg14
F0.0
sg17
F0.29
sg18
I1156710
sg31
I00
sg32
(lp61
(i__main__
BenchResult
p62
(dp63
g7
F0.35
sg13
I183
sg14
F0.0
sg15
S'/Users/terhechte/Development/crossplatform-language-benchmarks/builds/prime_cpp'
p64
sg17
F0.29
sg18
I1163264
sba(i__main__
BenchResult
p65
(dp66
g7
F0.29
sg13
I183
sg14
F0.0
sg15
g64
sg17
F0.29
sg18
I1163264
sba(i__main__
BenchResult
p67
(dp68
g7
F0.29
sg13
I181
sg14
F0.0
sg15
g64
sg17
F0.29
sg18
I1130496
sba(i__main__
BenchResult
p69
(dp70
g7
F0.29
sg13
I183
sg14
F0.0
sg15
g64
sg17
F0.29
sg18
I1163264
sba(i__main__
BenchResult
p71
(dp72
g7
F0.29
sg13
I183
sg14
F0.0
sg15
g64
sg17
F0.29
sg18
I1163264
sbasbaaa(lp73
S'Compile: Strings Functional'
p74
a(lp75
(i__main__
BenchResult
p76
(dp77
g7
F0.52
sg8
I01
sg9
S'Strings Functional'
p78
sg11
g12
sg13
I22434
sg14
F0.11
sg15
S'swiftc -O /Users/terhechte/Development/crossplatform-language-benchmarks/sources/strings_functional_swift.swift -o /Users/terhechte/Development/crossplatform-language-benchmarks/builds/strings_functional_swift'
p79
sg17
F0.48
sg18
I144572416
sba(i__main__
BenchResult
p80
(dp81
g7
F0.17
sg8
I01
sg9
g78
sg11
g21
sg13
I15677
sg14
F0.06
sg15
S'rustc -O /Users/terhechte/Development/crossplatform-language-benchmarks/sources/strings_functional_rust.rs -o /Users/terhechte/Development/crossplatform-language-benchmarks/builds/strings_functional_rust'
p82
sg17
F0.22
sg18
I107741184
sba(i__main__
BenchResult
p83
(dp84
g7
F0.57
sg8
I01
sg9
g78
sg11
g25
sg13
I12652
sg14
F0.05
sg15
S'clang++ -std=c++17 -O2 /Users/terhechte/Development/crossplatform-language-benchmarks/sources/strings_functional_cpp.cpp -o /Users/terhechte/Development/crossplatform-language-benchmarks/builds/strings_functional_cpp'
p85
sg17
F0.53
sg18
I137363456
sbaaa(lp86
g78
a(lp87
(i__main__
BenchResult
p88
(dp89
g7
F2.0479999999999996
sg9
g78
sg11
g12
sg13
I5566
sg14
F0.01
sg17
F2.014
sg18
I88965120
sg31
I00
sg32
(lp90
(i__main__
BenchResult
p91
(dp92
g7
F2.09
sg13
I5632
sg14
F0.01
sg15
S'/Users/terhechte/Development/crossplatform-language-benchmarks/builds/strings_functional_swift'
p93
sg17
F2.01
sg18
I90046464
sba(i__main__
BenchResult
p94
(dp95
g7
F2.04
sg13
I5607
sg14
F0.01
sg15
g93
sg17
F2.02
sg18
I89587712
sba(i__main__
BenchResult
p96
(dp97
g7
F2.05
sg13
I5634
sg14
F0.01
sg15
g93
sg17
F2.02
sg18
I90079232
sba(i__main__
BenchResult
p98
(dp99
g7
F2.03
sg13
I5591
sg14
F0.01
sg15
g93
sg17
F2.01
sg18
I89374720
sba(i__main__
BenchResult
p100
(dp101
g7
F2.03
sg13
I5369
sg14
F0.01
sg15
g93
sg17
F2.01
sg18
I85737472
sbasba(i__main__
BenchResult
p102
(dp103
g7
F0.033999999999999996
sg9
g78
sg11
g21
sg13
I590
sg14
F0.0
sg17
F0.02
sg18
I7815168
sg31
I00
sg32
(lp104
(i__main__
BenchResult
p105
(dp106
g7
F0.09
sg13
I590
sg14
F0.0
sg15
S'/Users/terhechte/Development/crossplatform-language-benchmarks/builds/strings_functional_rust'
p107
sg17
F0.02
sg18
I7815168
sba(i__main__
BenchResult
p108
(dp109
g7
F0.02
sg13
I590
sg14
F0.0
sg15
g107
sg17
F0.02
sg18
I7815168
sba(i__main__
BenchResult
p110
(dp111
g7
F0.02
sg13
I590
sg14
F0.0
sg15
g107
sg17
F0.02
sg18
I7815168
sba(i__main__
BenchResult
p112
(dp113
g7
F0.02
sg13
I590
sg14
F0.0
sg15
g107
sg17
F0.02
sg18
I7815168
sba(i__main__
BenchResult
p114
(dp115
g7
F0.02
sg13
I590
sg14
F0.0
sg15
g107
sg17
F0.02
sg18
I7815168
sbasba(i__main__
BenchResult
p116
(dp117
g7
F0.11599999999999999
sg9
g78
sg11
g25
sg13
I6237
sg14
F0.01
sg17
F0.09
sg18
I100365107
sg31
I00
sg32
(lp118
(i__main__
BenchResult
p119
(dp120
g7
F0.15
sg13
I6020
sg14
F0.01
sg15
S'/Users/terhechte/Development/crossplatform-language-benchmarks/builds/strings_functional_cpp'
p121
sg17
F0.09
sg18
I96796672
sba(i__main__
BenchResult
p122
(dp123
g7
F0.11
sg13
I6406
sg14
F0.01
sg15
g121
sg17
F0.09
sg18
I103120896
sba(i__main__
BenchResult
p124
(dp125
g7
F0.1
sg13
I6027
sg14
F0.01
sg15
g121
sg17
F0.09
sg18
I96911360
sba(i__main__
BenchResult
p126
(dp127
g7
F0.11
sg13
I6404
sg14
F0.01
sg15
g121
sg17
F0.09
sg18
I103088128
sba(i__main__
BenchResult
p128
(dp129
g7
F0.11
sg13
I6332
sg14
F0.01
sg15
g121
sg17
F0.09
sg18
I101908480
sbasbaaa(lp130
S'Compile: Strings Imperative'
p131
a(lp132
(i__main__
BenchResult
p133
(dp134
g7
F0.47
sg8
I01
sg9
S'Strings Imperative'
p135
sg11
g12
sg13
I22259
sg14
F0.12
sg15
S'swiftc -O /Users/terhechte/Development/crossplatform-language-benchmarks/sources/strings_imperative_swift.swift -o /Users/terhechte/Development/crossplatform-language-benchmarks/builds/strings_imperative_swift'
p136
sg17
F0.43
sg18
I140443648
sba(i__main__
BenchResult
p137
(dp138
g7
F0.17
sg8
I01
sg9
g135
sg11
g21
sg13
I15470
sg14
F0.05
sg15
S'rustc -O /Users/terhechte/Development/crossplatform-language-benchmarks/sources/strings_imperative_rust.rs -o /Users/terhechte/Development/crossplatform-language-benchmarks/builds/strings_imperative_rust'
p139
sg17
F0.2
sg18
I105480192
sba(i__main__
BenchResult
p140
(dp141
g7
F0.5
sg8
I01
sg9
g135
sg11
g25
sg13
I12424
sg14
F0.05
sg15
S'clang++ -std=c++17 -O2 /Users/terhechte/Development/crossplatform-language-benchmarks/sources/strings_imperative_cpp.cpp -o /Users/terhechte/Development/crossplatform-language-benchmarks/builds/strings_imperative_cpp'
p142
sg17
F0.48
sg18
I133201920
sbaaa(lp143
g135
a(lp144
(i__main__
BenchResult
p145
(dp146
g7
F2.0439999999999996
sg9
g135
sg11
g12
sg13
I4732
sg14
F0.01
sg17
F2.01
sg18
I75310694
sg31
I00
sg32
(lp147
(i__main__
BenchResult
p148
(dp149
g7
F2.09
sg13
I4729
sg14
F0.01
sg15
S'/Users/terhechte/Development/crossplatform-language-benchmarks/builds/strings_imperative_swift'
p150
sg17
F2.01
sg18
I75251712
sba(i__main__
BenchResult
p151
(dp152
g7
F2.03
sg13
I4732
sg14
F0.01
sg15
g150
sg17
F2.01
sg18
I75300864
sba(i__main__
BenchResult
p153
(dp154
g7
F2.04
sg13
I4733
sg14
F0.01
sg15
g150
sg17
F2.01
sg18
I75317248
sba(i__main__
BenchResult
p155
(dp156
g7
F2.03
sg13
I4730
sg14
F0.01
sg15
g150
sg17
F2.01
sg18
I75268096
sba(i__main__
BenchResult
p157
(dp158
g7
F2.03
sg13
I4739
sg14
F0.01
sg15
g150
sg17
F2.01
sg18
I75415552
sbasba(i__main__
BenchResult
p159
(dp160
g7
F0.033999999999999996
sg9
g135
sg11
g21
sg13
I590
sg14
F0.0
sg17
F0.02
sg18
I7815168
sg31
I00
sg32
(lp161
(i__main__
BenchResult
p162
(dp163
g7
F0.09
sg13
I587
sg14
F0.0
sg15
S'/Users/terhechte/Development/crossplatform-language-benchmarks/builds/strings_imperative_rust'
p164
sg17
F0.02
sg18
I7766016
sba(i__main__
BenchResult
p165
(dp166
g7
F0.02
sg13
I593
sg14
F0.0
sg15
g164
sg17
F0.02
sg18
I7864320
sba(i__main__
BenchResult
p167
(dp168
g7
F0.02
sg13
I590
sg14
F0.0
sg15
g164
sg17
F0.02
sg18
I7815168
sba(i__main__
BenchResult
p169
(dp170
g7
F0.02
sg13
I590
sg14
F0.0
sg15
g164
sg17
F0.02
sg18
I7815168
sba(i__main__
BenchResult
p171
(dp172
g7
F0.02
sg13
I592
sg14
F0.0
sg15
g164
sg17
F0.02
sg18
I7815168
sbasba(i__main__
BenchResult
p173
(dp174
g7
F0.09200000000000001
sg9
g135
sg11
g25
sg13
I1726
sg14
F0.0
sg17
F0.08
sg18
I26437222
sg31
I00
sg32
(lp175
(i__main__
BenchResult
p176
(dp177
g7
F0.14
sg13
I1721
sg14
F0.0
sg15
S'/Users/terhechte/Development/crossplatform-language-benchmarks/builds/strings_imperative_cpp'
p178
sg17
F0.08
sg18
I26361856
sba(i__main__
BenchResult
p179
(dp180
g7
F0.08
sg13
I1728
sg14
F0.0
sg15
g178
sg17
F0.08
sg18
I26476544
sba(i__main__
BenchResult
p181
(dp182
g7
F0.08
sg13
I1728
sg14
F0.0
sg15
g178
sg17
F0.08
sg18
I26476544
sba(i__main__
BenchResult
p183
(dp184
g7
F0.08
sg13
I1728
sg14
F0.0
sg15
g178
sg17
F0.08
sg18
I26476544
sba(i__main__
BenchResult
p185
(dp186
g7
F0.08
sg13
I1726
sg14
F0.0
sg15
g178
sg17
F0.08
sg18
I26394624
sbasbaaa(lp187
S'Compile: Chunks Functional'
p188
a(lp189
(i__main__
BenchResult
p190
(dp191
g7
F0.41
sg8
I01
sg9
S'Chunks Functional'
p192
sg11
g12
sg13
I16332
sg14
F0.07
sg15
S'swiftc -O /Users/terhechte/Development/crossplatform-language-benchmarks/sources/chunks_functional_swift.swift -o /Users/terhechte/Development/crossplatform-language-benchmarks/builds/chunks_functional_swift'
p193
sg17
F0.35
sg18
I113704960
sba(i__main__
BenchResult
p194
(dp195
g7
F0.15
sg8
I01
sg9
g192
sg11
g21
sg13
I15258
sg14
F0.04
sg15
S'rustc -O /Users/terhechte/Development/crossplatform-language-benchmarks/sources/chunks_functional_rust.rs -o /Users/terhechte/Development/crossplatform-language-benchmarks/builds/chunks_functional_rust'
p196
sg17
F0.2
sg18
I104005632
sba(i__main__
BenchResult
p197
(dp198
g7
F0.08
sg8
I01
sg9
g192
sg11
S'C'
p199
sg13
I8619
sg14
F0.03
sg15
S'clang -O2 /Users/terhechte/Development/crossplatform-language-benchmarks/sources/chunks_imperative_c.c -o /Users/terhechte/Development/crossplatform-language-benchmarks/builds/chunks_imperative_c'
p200
sg17
F0.06
sg18
I73826304
sbaaa(lp201
g192
a(lp202
(i__main__
BenchResult
p203
(dp204
g7
F3.018
sg9
g192
sg11
g12
sg13
I108774
sg14
F0.28200000000000003
sg17
F2.7039999999999997
sg18
I1780200243
sg31
I00
sg32
(lp205
(i__main__
BenchResult
p206
(dp207
g7
F3.09
sg13
I109080
sg14
F0.29
sg15
S'/Users/terhechte/Development/crossplatform-language-benchmarks/builds/chunks_functional_swift'
p208
sg17
F2.72
sg18
I1785200640
sba(i__main__
BenchResult
p209
(dp210
g7
F3.0
sg13
I108831
sg14
F0.28
sg15
g208
sg17
F2.7
sg18
I1781121024
sba(i__main__
BenchResult
p211
(dp212
g7
F2.99
sg13
I109338
sg14
F0.28
sg15
g208
sg17
F2.69
sg18
I1789427712
sba(i__main__
BenchResult
p213
(dp214
g7
F3.0
sg13
I108309
sg14
F0.28
sg15
g208
sg17
F2.7
sg18
I1772568576
sba(i__main__
BenchResult
p215
(dp216
g7
F3.01
sg13
I108316
sg14
F0.28
sg15
g208
sg17
F2.71
sg18
I1772683264
sbasba(i__main__
BenchResult
p217
(dp218
g7
F0.34
sg9
g192
sg11
g21
sg13
I65274
sg14
F0.09200000000000001
sg17
F0.22400000000000003
sg18
I1057524940
sg31
I00
sg32
(lp219
(i__main__
BenchResult
p220
(dp221
g7
F0.39
sg13
I63424
sg14
F0.09
sg15
S'/Users/terhechte/Development/crossplatform-language-benchmarks/builds/chunks_functional_rust'
p222
sg17
F0.22
sg18
I1037287424
sba(i__main__
BenchResult
p223
(dp224
g7
F0.33
sg13
I67526
sg14
F0.09
sg15
g222
sg17
F0.23
sg18
I1104494592
sba(i__main__
BenchResult
p225
(dp226
g7
F0.33
sg13
I63951
sg14
F0.1
sg15
g222
sg17
F0.22
sg18
I1045839872
sba(i__main__
BenchResult
p227
(dp228
g7
F0.32
sg13
I64451
sg14
F0.08
sg15
g222
sg17
F0.22
sg18
I1054113792
sba(i__main__
BenchResult
p229
(dp230
g7
F0.33
sg13
I67021
sg14
F0.1
sg15
g222
sg17
F0.23
sg18
I1045889024
sbasba(i__main__
BenchResult
p231
(dp232
g7
F0.15000000000000002
sg9
g192
sg11
g199
sg13
I58775
sg14
F0.08000000000000002
sg17
F0.05
sg18
I961160806
sg31
I00
sg32
(lp233
(i__main__
BenchResult
p234
(dp235
g7
F0.19
sg13
I58778
sg14
F0.08
sg15
S'/Users/terhechte/Development/crossplatform-language-benchmarks/builds/chunks_imperative_c'
p236
sg17
F0.05
sg18
I961167360
sba(i__main__
BenchResult
p237
(dp238
g7
F0.14
sg13
I58775
sg14
F0.07
sg15
g236
sg17
F0.05
sg18
I961167360
sba(i__main__
BenchResult
p239
(dp240
g7
F0.14
sg13
I58775
sg14
F0.08
sg15
g236
sg17
F0.05
sg18
I961167360
sba(i__main__
BenchResult
p241
(dp242
g7
F0.14
sg13
I58775
sg14
F0.09
sg15
g236
sg17
F0.05
sg18
I961167360
sba(i__main__
BenchResult
p243
(dp244
g7
F0.14
sg13
I58773
sg14
F0.08
sg15
g236
sg17
F0.05
sg18
I961134592
sbasbaaa(lp245
S'Compile: Chunks Imperative'
p246
a(lp247
(i__main__
BenchResult
p248
(dp249
g7
F0.31
sg8
I01
sg9
S'Chunks Imperative'
p250
sg11
g12
sg13
I15744
sg14
F0.07
sg15
S'swiftc -O /Users/terhechte/Development/crossplatform-language-benchmarks/sources/chunks_imperative_swift.swift -o /Users/terhechte/Development/crossplatform-language-benchmarks/builds/chunks_imperative_swift'
p251
sg17
F0.26
sg18
I105070592
sba(i__main__
BenchResult
p252
(dp253
g7
F0.15
sg8
I01
sg9
g250
sg11
g21
sg13
I15114
sg14
F0.04
sg15
S'rustc -O /Users/terhechte/Development/crossplatform-language-benchmarks/sources/chunks_imperative_rust.rs -o /Users/terhechte/Development/crossplatform-language-benchmarks/builds/chunks_imperative_rust'
p254
sg17
F0.19
sg18
I103596032
sba(i__main__
BenchResult
p255
(dp256
g7
F0.08
sg8
I01
sg9
g250
sg11
g199
sg13
I8702
sg14
F0.03
sg15
S'clang -O2 /Users/terhechte/Development/crossplatform-language-benchmarks/sources/chunks_imperative_c.c -o /Users/terhechte/Development/crossplatform-language-benchmarks/builds/chunks_imperative_c'
p257
sg17
F0.09
sg18
I75300864
sbaaa(lp258
g250
a(lp259
(i__main__
BenchResult
p260
(dp261
g7
F0.27
sg9
g250
sg11
g12
sg13
I58821
sg14
F0.084
sg17
F0.17
sg18
I961760460
sg31
I00
sg32
(lp262
(i__main__
BenchResult
p263
(dp264
g7
F0.31
sg13
I58824
sg14
F0.09
sg15
S'/Users/terhechte/Development/crossplatform-language-benchmarks/builds/chunks_imperative_swift'
p265
sg17
F0.17
sg18
I961806336
sba(i__main__
BenchResult
p266
(dp267
g7
F0.26
sg13
I58810
sg14
F0.08
sg15
g265
sg17
F0.17
sg18
I961576960
sba(i__main__
BenchResult
p268
(dp269
g7
F0.26
sg13
I58824
sg14
F0.09
sg15
g265
sg17
F0.17
sg18
I961806336
sba(i__main__
BenchResult
p270
(dp271
g7
F0.26
sg13
I58824
sg14
F0.08
sg15
g265
sg17
F0.17
sg18
I961806336
sba(i__main__
BenchResult
p272
(dp273
g7
F0.26
sg13
I58824
sg14
F0.08
sg15
g265
sg17
F0.17
sg18
I961806336
sbasba(i__main__
BenchResult
p274
(dp275
g7
F0.34400000000000003
sg9
g250
sg11
g21
sg13
I67520
sg14
F0.092
sg17
F0.22600000000000003
sg18
I1060342988
sg31
I00
sg32
(lp276
(i__main__
BenchResult
p277
(dp278
g7
F0.39
sg13
I67008
sg14
F0.09
sg15
S'/Users/terhechte/Development/crossplatform-language-benchmarks/builds/chunks_imperative_rust'
p279
sg17
F0.23
sg18
I1070841856
sba(i__main__
BenchResult
p280
(dp281
g7
F0.33
sg13
I64953
sg14
F0.09
sg15
g279
sg17
F0.22
sg18
I1012006912
sba(i__main__
BenchResult
p282
(dp283
g7
F0.34
sg13
I72121
sg14
F0.1
sg15
g279
sg17
F0.23
sg18
I1051754496
sba(i__main__
BenchResult
p284
(dp285
g7
F0.33
sg13
I68038
sg14
F0.09
sg15
g279
sg17
F0.23
sg18
I1096105984
sba(i__main__
BenchResult
p286
(dp287
g7
F0.33
sg13
I65482
sg14
F0.09
sg15
g279
sg17
F0.22
sg18
I1071005696
sbasba(i__main__
BenchResult
p288
(dp289
g7
F0.15000000000000002
sg9
g250
sg11
g199
sg13
I58775
sg14
F0.082
sg17
F0.05
sg18
I961167360
sg31
I00
sg32
(lp290
(i__main__
BenchResult
p291
(dp292
g7
F0.19
sg13
I58775
sg14
F0.09
sg15
S'/Users/terhechte/Development/crossplatform-language-benchmarks/builds/chunks_imperative_c'
p293
sg17
F0.05
sg18
I961167360
sba(i__main__
BenchResult
p294
(dp295
g7
F0.14
sg13
I58775
sg14
F0.08
sg15
g293
sg17
F0.05
sg18
I961167360
sba(i__main__
BenchResult
p296
(dp297
g7
F0.14
sg13
I58775
sg14
F0.08
sg15
g293
sg17
F0.05
sg18
I961167360
sba(i__main__
BenchResult
p298
(dp299
g7
F0.14
sg13
I58775
sg14
F0.08
sg15
g293
sg17
F0.05
sg18
I961167360
sba(i__main__
BenchResult
p300
(dp301
g7
F0.14
sg13
I58775
sg14
F0.08
sg15
g293
sg17
F0.05
sg18
I961167360
sbasbaaa(lp302
S'Compile: JSON'
p303
a(lp304
(i__main__
BenchResult
p305
(dp306
g7
F0.48
sg8
I01
sg9
S'JSON'
p307
sg11
g12
sg13
I22345
sg14
F0.11
sg15
S'swiftc -O /Users/terhechte/Development/crossplatform-language-benchmarks/sources/json_swift.swift -o /Users/terhechte/Development/crossplatform-language-benchmarks/builds/json_swift'
p308
sg17
F0.43
sg18
I139935744
sba(i__main__
BenchResult
p309
(dp310
g7
F3.53
sg8
I01
sg9
g307
sg11
g21
sg13
I199498
sg14
F1.18
sg15
S'cargo build --release'
p311
sg17
F9.03
sg18
I272318464
sbaaa(lp312
g307
a(lp313
(i__main__
BenchResult
p314
(dp315
g7
F1.34
sg9
g307
sg11
g12
sg13
I5797
sg14
F0.01
sg17
F1.306
sg18
I92520448
sg31
I00
sg32
(lp316
(i__main__
BenchResult
p317
(dp318
g7
F1.37
sg13
I5798
sg14
F0.01
sg15
S'/Users/terhechte/Development/crossplatform-language-benchmarks/builds/json_swift'
p319
sg17
F1.3
sg18
I92536832
sba(i__main__
BenchResult
p320
(dp321
g7
F1.32
sg13
I5791
sg14
F0.01
sg15
g319
sg17
F1.3
sg18
I92405760
sba(i__main__
BenchResult
p322
(dp323
g7
F1.33
sg13
I5796
sg14
F0.01
sg15
g319
sg17
F1.31
sg18
I92454912
sba(i__main__
BenchResult
p324
(dp325
g7
F1.34
sg13
I5808
sg14
F0.01
sg15
g319
sg17
F1.3
sg18
I92667904
sba(i__main__
BenchResult
p326
(dp327
g7
F1.34
sg13
I5796
sg14
F0.01
sg15
g319
sg17
F1.32
sg18
I92536832
sbasba(i__main__
BenchResult
p328
(dp329
g7
F0.06399999999999999
sg9
g307
sg11
g21
sg13
I4772
sg14
F0.004
sg17
F0.04
sg18
I76277350
sg31
I00
sg32
(lp330
(i__main__
BenchResult
p331
(dp332
g7
F0.12
sg13
I4766
sg14
F0.0
sg15
S'/Users/terhechte/Development/crossplatform-language-benchmarks/builds/json_rust'
p333
sg17
F0.04
sg18
I76169216
sba(i__main__
BenchResult
p334
(dp335
g7
F0.05
sg13
I4768
sg14
F0.0
sg15
g333
sg17
F0.04
sg18
I76152832
sba(i__main__
BenchResult
p336
(dp337
g7
F0.05
sg13
I4799
sg14
F0.01
sg15
g333
sg17
F0.04
sg18
I76726272
sba(i__main__
BenchResult
p338
(dp339
g7
F0.05
sg13
I4750
sg14
F0.01
sg15
g333
sg17
F0.04
sg18
I75923456
sba(i__main__
BenchResult
p340
(dp341
g7
F0.05
sg13
I4781
sg14
F0.0
sg15
g333
sg17
F0.04
sg18
I76414976
sbasbaaa(lp342
S'Compile: JSON_PB'
p343
a(lp344
(i__main__
BenchResult
p345
(dp346
g7
F0.04
sg8
I01
sg9
S'JSON_PB'
p347
sg11
g21
sg13
I2402
sg14
F0.01
sg15
S'cargo build --release'
p348
sg17
F0.02
sg18
I18137088
sbaaa(lp349
g347
a(lp350
(i__main__
BenchResult
p351
(dp352
g7
F0.052000000000000005
sg9
g347
sg11
g21
sg13
I4780
sg14
F0.004
sg17
F0.04
sg18
I76398592
sg31
I00
sg32
(lp353
(i__main__
BenchResult
p354
(dp355
g7
F0.05
sg13
I4754
sg14
F0.0
sg15
S'/Users/terhechte/Development/crossplatform-language-benchmarks/builds/json_rust'
p356
sg17
F0.04
sg18
I75972608
sba(i__main__
BenchResult
p357
(dp358
g7
F0.05
sg13
I4802
sg14
F0.0
sg15
g356
sg17
F0.04
sg18
I76742656
sba(i__main__
BenchResult
p359
(dp360
g7
F0.05
sg13
I4795
sg14
F0.01
sg15
g356
sg17
F0.04
sg18
I76627968
sba(i__main__
BenchResult
p361
(dp362
g7
F0.05
sg13
I4769
sg14
F0.0
sg15
g356
sg17
F0.04
sg18
I76185600
sba(i__main__
BenchResult
p363
(dp364
g7
F0.06
sg13
I4781
sg14
F0.01
sg15
g356
sg17
F0.04
sg18
I76464128
sbasbaaatp365
Rp366
.