ccollections
OrderedDict
p0
((lp1
(lp2
S'Compile: Primes Functional'
p3
a(lp4
(i__main__
BenchResult
p5
(dp6
S'real'
p7
F3.67
sS'is_compile'
p8
I01
sS'name'
p9
S'Primes Functional'
p10
sS'language'
p11
S'Swift'
p12
sS'page_reclaims'
p13
I64958
sS'sys'
p14
F0.85
sS'command'
p15
S'swiftc -O /Users/benedikt.terhechte/Desktop/benchmark/sources/prime_swift.swift -o /Users/benedikt.terhechte/Desktop/benchmark/builds/prime_swift'
p16
sS'user'
p17
F1.02
sS'resident_set_size'
p18
I73658368
sba(i__main__
BenchResult
p19
(dp20
g7
F2.4
sg8
I01
sg9
g10
sg11
S'Rust'
p21
sg13
I30387
sg14
F0.42
sg15
S'rustc -O /Users/benedikt.terhechte/Desktop/benchmark/sources/prime_rust.rs -o /Users/benedikt.terhechte/Desktop/benchmark/builds/prime_rust'
p22
sg17
F0.62
sg18
I73977856
sba(i__main__
BenchResult
p23
(dp24
g7
F24.45
sg8
I01
sg9
g10
sg11
S'Kotlin'
p25
sg13
I361705
sg14
F1.41
sg15
S'/Users/benedikt.terhechte/Downloads/kotlin-native-macos-0.9.3/bin/kotlinc -opt /Users/benedikt.terhechte/Desktop/benchmark/sources/prime_kotlin.kt -o /Users/benedikt.terhechte/Desktop/benchmark/builds/prime_kotlin.kexe'
p26
sg17
F33.01
sg18
I1057300480
sbaaa(lp27
g10
a(lp28
(i__main__
BenchResult
p29
(dp30
g7
F3.4180000000000006
sg9
g10
sg11
g12
sg13
I1441
sg14
F0.004
sg17
F3.3939999999999997
sg18
I5748326
sS'fail'
p31
I00
sS'children'
p32
(lp33
(i__main__
BenchResult
p34
(dp35
g7
F3.48
sg13
I1392
sg14
F0.01
sg15
S'/Users/benedikt.terhechte/Desktop/benchmark/builds/prime_swift'
p36
sg17
F3.44
sg18
I5754880
sba(i__main__
BenchResult
p37
(dp38
g7
F3.41
sg13
I1452
sg14
F0.0
sg15
g36
sg17
F3.39
sg18
I5738496
sba(i__main__
BenchResult
p39
(dp40
g7
F3.4
sg13
I1452
sg14
F0.01
sg15
g36
sg17
F3.37
sg18
I5738496
sba(i__main__
BenchResult
p41
(dp42
g7
F3.39
sg13
I1452
sg14
F0.0
sg15
g36
sg17
F3.37
sg18
I5738496
sba(i__main__
BenchResult
p43
(dp44
g7
F3.41
sg13
I1460
sg14
F0.0
sg15
g36
sg17
F3.4
sg18
I5771264
sbasba(i__main__
BenchResult
p45
(dp46
g7
F1.184
sg9
g10
sg11
g21
sg13
I285
sg14
F0.0
sg17
F1.172
sg18
I1115750
sg31
I00
sg32
(lp47
(i__main__
BenchResult
p48
(dp49
g7
F1.21
sg13
I286
sg14
F0.0
sg15
S'/Users/benedikt.terhechte/Desktop/benchmark/builds/prime_rust'
p50
sg17
F1.19
sg18
I1118208
sba(i__main__
BenchResult
p51
(dp52
g7
F1.18
sg13
I286
sg14
F0.0
sg15
g50
sg17
F1.17
sg18
I1118208
sba(i__main__
BenchResult
p53
(dp54
g7
F1.18
sg13
I286
sg14
F0.0
sg15
g50
sg17
F1.17
sg18
I1118208
sba(i__main__
BenchResult
p55
(dp56
g7
F1.16
sg13
I283
sg14
F0.0
sg15
g50
sg17
F1.15
sg18
I1105920
sba(i__main__
BenchResult
p57
(dp58
g7
F1.19
sg13
I286
sg14
F0.0
sg15
g50
sg17
F1.18
sg18
I1118208
sbasba(i__main__
BenchResult
p59
(dp60
g7
F119.282
sg9
g10
sg11
g25
sg13
I1349
sg14
F0.05600000000000001
sg17
F119.15799999999999
sg18
I5332992
sg31
I00
sg32
(lp61
(i__main__
BenchResult
p62
(dp63
g7
F120.02
sg13
I1349
sg14
F0.07
sg15
S'/Users/benedikt.terhechte/Desktop/benchmark/builds/prime_kotlin.kexe'
p64
sg17
F119.86
sg18
I5332992
sba(i__main__
BenchResult
p65
(dp66
g7
F120.17
sg13
I1348
sg14
F0.08
sg15
g64
sg17
F119.99
sg18
I5332992
sba(i__main__
BenchResult
p67
(dp68
g7
F118.83
sg13
I1349
sg14
F0.04
sg15
g64
sg17
F118.74
sg18
I5332992
sba(i__main__
BenchResult
p69
(dp70
g7
F118.64
sg13
I1351
sg14
F0.04
sg15
g64
sg17
F118.55
sg18
I5332992
sba(i__main__
BenchResult
p71
(dp72
g7
F118.75
sg13
I1349
sg14
F0.05
sg15
g64
sg17
F118.65
sg18
I5332992
sbasbaaa(lp73
S'Compile: Strings Functional'
p74
a(lp75
(i__main__
BenchResult
p76
(dp77
g7
F4.05
sg8
I01
sg9
S'Strings Functional'
p78
sg11
g12
sg13
I39791
sg14
F0.25
sg15
S'swiftc -O /Users/benedikt.terhechte/Desktop/benchmark/sources/strings_functional_swift.swift -o /Users/benedikt.terhechte/Desktop/benchmark/builds/strings_functional_swift'
p79
sg17
F1.33
sg18
I97689600
sba(i__main__
BenchResult
p80
(dp81
g7
F0.45
sg8
I01
sg9
g78
sg11
g21
sg13
I28456
sg14
F0.08
sg15
S'rustc -O /Users/benedikt.terhechte/Desktop/benchmark/sources/strings_functional_rust.rs -o /Users/benedikt.terhechte/Desktop/benchmark/builds/strings_functional_rust'
p82
sg17
F0.7
sg18
I80162816
sba(i__main__
BenchResult
p83
(dp84
g7
F21.01
sg8
I01
sg9
g78
sg11
g25
sg13
I426686
sg14
F1.17
sg15
S'/Users/benedikt.terhechte/Downloads/kotlin-native-macos-0.9.3/bin/kotlinc -opt /Users/benedikt.terhechte/Desktop/benchmark/sources/strings_functional_kotlin.kt -o /Users/benedikt.terhechte/Desktop/benchmark/builds/strings_functional_kotlin.kexe'
p85
sg17
F40.41
sg18
I1243267072
sbaaa(lp86
g78
a(lp87
(i__main__
BenchResult
p88
(dp89
g7
F3.4099999999999993
sg9
g78
sg11
g12
sg13
I49185
sg14
F0.054000000000000006
sg17
F3.304
sg18
I201256140
sg31
I00
sg32
(lp90
(i__main__
BenchResult
p91
(dp92
g7
F3.66
sg13
I49130
sg14
F0.06
sg15
S'/Users/benedikt.terhechte/Desktop/benchmark/builds/strings_functional_swift'
p93
sg17
F3.38
sg18
I201285632
sba(i__main__
BenchResult
p94
(dp95
g7
F3.3
sg13
I49230
sg14
F0.05
sg15
g93
sg17
F3.24
sg18
I201375744
sba(i__main__
BenchResult
p96
(dp97
g7
F3.38
sg13
I49161
sg14
F0.05
sg15
g93
sg17
F3.32
sg18
I201093120
sba(i__main__
BenchResult
p98
(dp99
g7
F3.38
sg13
I49212
sg14
F0.06
sg15
g93
sg17
F3.32
sg18
I201302016
sba(i__main__
BenchResult
p100
(dp101
g7
F3.33
sg13
I49193
sg14
F0.05
sg15
g93
sg17
F3.26
sg18
I201224192
sbasba(i__main__
BenchResult
p102
(dp103
g7
F0.052000000000000005
sg9
g78
sg11
g21
sg13
I2230
sg14
F0.0
sg17
F0.04
sg18
I8867840
sg31
I00
sg32
(lp104
(i__main__
BenchResult
p105
(dp106
g7
F0.06
sg13
I2128
sg14
F0.0
sg15
S'/Users/benedikt.terhechte/Desktop/benchmark/builds/strings_functional_rust'
p107
sg17
F0.04
sg18
I8658944
sba(i__main__
BenchResult
p108
(dp109
g7
F0.05
sg13
I2128
sg14
F0.0
sg15
g107
sg17
F0.04
sg18
I8658944
sba(i__main__
BenchResult
p110
(dp111
g7
F0.05
sg13
I2128
sg14
F0.0
sg15
g107
sg17
F0.04
sg18
I8658944
sba(i__main__
BenchResult
p112
(dp113
g7
F0.05
sg13
I2128
sg14
F0.0
sg15
g107
sg17
F0.04
sg18
I8658944
sba(i__main__
BenchResult
p114
(dp115
g7
F0.05
sg13
I2640
sg14
F0.0
sg15
g107
sg17
F0.04
sg18
I9703424
sbasba(i__main__
BenchResult
p116
(dp117
g7
F2.338
sg9
g78
sg11
g25
sg13
I177578
sg14
F0.192
sg17
F2.1339999999999995
sg18
I601115033
sg31
I00
sg32
(lp118
(i__main__
BenchResult
p119
(dp120
g7
F2.35
sg13
I177773
sg14
F0.19
sg15
S'/Users/benedikt.terhechte/Desktop/benchmark/builds/strings_functional_kotlin.kexe'
p121
sg17
F2.14
sg18
I601866240
sba(i__main__
BenchResult
p122
(dp123
g7
F2.33
sg13
I177867
sg14
F0.19
sg15
g121
sg17
F2.13
sg18
I602259456
sba(i__main__
BenchResult
p124
(dp125
g7
F2.31
sg13
I177470
sg14
F0.19
sg15
g121
sg17
F2.11
sg18
I600735744
sba(i__main__
BenchResult
p126
(dp127
g7
F2.36
sg13
I177248
sg14
F0.19
sg15
g121
sg17
F2.16
sg18
I599777280
sba(i__main__
BenchResult
p128
(dp129
g7
F2.34
sg13
I177536
sg14
F0.2
sg15
g121
sg17
F2.13
sg18
I600936448
sbasbaaa(lp130
S'Compile: Strings Imperative'
p131
a(lp132
(i__main__
BenchResult
p133
(dp134
g7
F1.3
sg8
I01
sg9
S'Strings Imperative'
p135
sg11
g12
sg13
I40729
sg14
F0.11
sg15
S'swiftc -O /Users/benedikt.terhechte/Desktop/benchmark/sources/strings_imperative_swift.swift -o /Users/benedikt.terhechte/Desktop/benchmark/builds/strings_imperative_swift'
p136
sg17
F1.1
sg18
I90152960
sba(i__main__
BenchResult
p137
(dp138
g7
F0.43
sg8
I01
sg9
g135
sg11
g21
sg13
I28956
sg14
F0.07
sg15
S'rustc -O /Users/benedikt.terhechte/Desktop/benchmark/sources/strings_imperative_rust.rs -o /Users/benedikt.terhechte/Desktop/benchmark/builds/strings_imperative_rust'
p139
sg17
F0.64
sg18
I79945728
sba(i__main__
BenchResult
p140
(dp141
g7
F19.56
sg8
I01
sg9
g135
sg11
g25
sg13
I420896
sg14
F1.17
sg15
S'/Users/benedikt.terhechte/Downloads/kotlin-native-macos-0.9.3/bin/kotlinc -opt /Users/benedikt.terhechte/Desktop/benchmark/sources/strings_imperative_kotlin.kt -o /Users/benedikt.terhechte/Desktop/benchmark/builds/strings_imperative_kotlin.kexe'
p142
sg17
F35.84
sg18
I1270489088
sbaaa(lp143
g135
a(lp144
(i__main__
BenchResult
p145
(dp146
g7
F2.9299999999999997
sg9
g135
sg11
g12
sg13
I49150
sg14
F0.05
sg17
F2.866
sg18
I201048883
sg31
I00
sg32
(lp147
(i__main__
BenchResult
p148
(dp149
g7
F2.92
sg13
I49183
sg14
F0.05
sg15
S'/Users/benedikt.terhechte/Desktop/benchmark/builds/strings_imperative_swift'
p150
sg17
F2.86
sg18
I201183232
sba(i__main__
BenchResult
p151
(dp152
g7
F2.94
sg13
I49097
sg14
F0.05
sg15
g150
sg17
F2.88
sg18
I200830976
sba(i__main__
BenchResult
p153
(dp154
g7
F2.93
sg13
I49184
sg14
F0.05
sg15
g150
sg17
F2.86
sg18
I201187328
sba(i__main__
BenchResult
p155
(dp156
g7
F2.95
sg13
I49143
sg14
F0.05
sg15
g150
sg17
F2.88
sg18
I201019392
sba(i__main__
BenchResult
p157
(dp158
g7
F2.91
sg13
I49144
sg14
F0.05
sg15
g150
sg17
F2.85
sg18
I201023488
sbasba(i__main__
BenchResult
p159
(dp160
g7
F0.052000000000000005
sg9
g135
sg11
g21
sg13
I2128
sg14
F0.0
sg17
F0.04
sg18
I8660582
sg31
I00
sg32
(lp161
(i__main__
BenchResult
p162
(dp163
g7
F0.06
sg13
I2129
sg14
F0.0
sg15
S'/Users/benedikt.terhechte/Desktop/benchmark/builds/strings_imperative_rust'
p164
sg17
F0.04
sg18
I8663040
sba(i__main__
BenchResult
p165
(dp166
g7
F0.05
sg13
I2129
sg14
F0.0
sg15
g164
sg17
F0.04
sg18
I8663040
sba(i__main__
BenchResult
p167
(dp168
g7
F0.05
sg13
I2129
sg14
F0.0
sg15
g164
sg17
F0.04
sg18
I8663040
sba(i__main__
BenchResult
p169
(dp170
g7
F0.05
sg13
I2129
sg14
F0.0
sg15
g164
sg17
F0.04
sg18
I8663040
sba(i__main__
BenchResult
p171
(dp172
g7
F0.05
sg13
I2126
sg14
F0.0
sg15
g164
sg17
F0.04
sg18
I8650752
sbasba(i__main__
BenchResult
p173
(dp174
g7
F1.94
sg9
g135
sg11
g25
sg13
I177480
sg14
F0.194
sg17
F1.73
sg18
I600708710
sg31
I00
sg32
(lp175
(i__main__
BenchResult
p176
(dp177
g7
F1.94
sg13
I177250
sg14
F0.2
sg15
S'/Users/benedikt.terhechte/Desktop/benchmark/builds/strings_imperative_kotlin.kexe'
p178
sg17
F1.73
sg18
I599744512
sba(i__main__
BenchResult
p179
(dp180
g7
F1.94
sg13
I177447
sg14
F0.19
sg15
g178
sg17
F1.73
sg18
I600571904
sba(i__main__
BenchResult
p181
(dp182
g7
F1.94
sg13
I177315
sg14
F0.19
sg15
g178
sg17
F1.73
sg18
I600047616
sba(i__main__
BenchResult
p183
(dp184
g7
F1.94
sg13
I177759
sg14
F0.19
sg15
g178
sg17
F1.73
sg18
I601841664
sba(i__main__
BenchResult
p185
(dp186
g7
F1.94
sg13
I177632
sg14
F0.2
sg15
g178
sg17
F1.73
sg18
I601337856
sbasbaaa(lp187
S'Compile: Chunks Functional'
p188
a(lp189
(i__main__
BenchResult
p190
(dp191
g7
F0.91
sg8
I01
sg9
S'Chunks Functional'
p192
sg11
g12
sg13
I28592
sg14
F0.06
sg15
S'swiftc -O /Users/benedikt.terhechte/Desktop/benchmark/sources/chunks_functional_swift.swift -o /Users/benedikt.terhechte/Desktop/benchmark/builds/chunks_functional_swift'
p193
sg17
F0.75
sg18
I58331136
sba(i__main__
BenchResult
p194
(dp195
g7
F0.42
sg8
I01
sg9
g192
sg11
g21
sg13
I28746
sg14
F0.07
sg15
S'rustc -O /Users/benedikt.terhechte/Desktop/benchmark/sources/chunks_functional_rust.rs -o /Users/benedikt.terhechte/Desktop/benchmark/builds/chunks_functional_rust'
p196
sg17
F0.68
sg18
I79818752
sba(i__main__
BenchResult
p197
(dp198
g7
F21.12
sg8
I01
sg9
g192
sg11
g25
sg13
I449926
sg14
F1.24
sg15
S'/Users/benedikt.terhechte/Downloads/kotlin-native-macos-0.9.3/bin/kotlinc -opt /Users/benedikt.terhechte/Desktop/benchmark/sources/chunks_functional_kotlin.kt -o /Users/benedikt.terhechte/Desktop/benchmark/builds/chunks_functional_kotlin.kexe'
p199
sg17
F43.52
sg18
I1392545792
sba(i__main__
BenchResult
p200
(dp201
g7
F1.82
sg8
I01
sg9
g192
sg11
S'C'
p202
sg13
I9655
sg14
F0.12
sg15
S'clang -O2 /Users/benedikt.terhechte/Desktop/benchmark/sources/chunks_imperative_c.c -o /Users/benedikt.terhechte/Desktop/benchmark/builds/chunks_imperative_c'
p203
sg17
F0.15
sg18
I31109120
sbaaa(lp204
g192
a(lp205
(i__main__
BenchResult
p206
(dp207
g7
F10.361999999999998
sg9
g192
sg11
g12
sg13
I654071
sg14
F0.746
sg17
F9.594
sg18
I1705818521
sg31
I00
sg32
(lp208
(i__main__
BenchResult
p209
(dp210
g7
F10.41
sg13
I654296
sg14
F0.74
sg15
S'/Users/benedikt.terhechte/Desktop/benchmark/builds/chunks_functional_swift'
p211
sg17
F9.64
sg18
I1705811968
sba(i__main__
BenchResult
p212
(dp213
g7
F10.34
sg13
I654491
sg14
F0.74
sg15
g211
sg17
F9.58
sg18
I1705811968
sba(i__main__
BenchResult
p214
(dp215
g7
F10.33
sg13
I653780
sg14
F0.74
sg15
g211
sg17
F9.57
sg18
I1705840640
sba(i__main__
BenchResult
p216
(dp217
g7
F10.37
sg13
I654217
sg14
F0.74
sg15
g211
sg17
F9.6
sg18
I1705811968
sba(i__main__
BenchResult
p218
(dp219
g7
F10.36
sg13
I653574
sg14
F0.77
sg15
g211
sg17
F9.58
sg18
I1705816064
sbasba(i__main__
BenchResult
p220
(dp221
g7
F0.812
sg9
g192
sg11
g21
sg13
I256691
sg14
F0.25
sg17
F0.5479999999999999
sg18
I970183475
sg31
I00
sg32
(lp222
(i__main__
BenchResult
p223
(dp224
g7
F0.76
sg13
I235106
sg14
F0.23
sg15
S'/Users/benedikt.terhechte/Desktop/benchmark/builds/chunks_functional_rust'
p225
sg17
F0.52
sg18
I962932736
sba(i__main__
BenchResult
p226
(dp227
g7
F0.84
sg13
I268097
sg14
F0.26
sg15
g225
sg17
F0.56
sg18
I962793472
sba(i__main__
BenchResult
p228
(dp229
g7
F0.85
sg13
I268097
sg14
F0.27
sg15
g225
sg17
F0.57
sg18
I962793472
sba(i__main__
BenchResult
p230
(dp231
g7
F0.78
sg13
I244057
sg14
F0.23
sg15
g225
sg17
F0.53
sg18
I999596032
sba(i__main__
BenchResult
p232
(dp233
g7
F0.83
sg13
I268099
sg14
F0.26
sg15
g225
sg17
F0.56
sg18
I962801664
sbasba(i__main__
BenchResult
p234
(dp235
g31
I01
sg32
(lp236
(i__main__
BenchResult
p237
(dp238
S'is_fail'
p239
I01
sba(i__main__
BenchResult
p240
(dp241
g239
I01
sba(i__main__
BenchResult
p242
(dp243
g239
I01
sba(i__main__
BenchResult
p244
(dp245
g239
I01
sba(i__main__
BenchResult
p246
(dp247
g239
I01
sbasg11
g25
sg9
g192
sba(i__main__
BenchResult
p248
(dp249
g7
F0.842
sg9
g192
sg11
g202
sg13
I234591
sg14
F0.346
sg17
F0.48
sg18
I960821657
sg31
I00
sg32
(lp250
(i__main__
BenchResult
p251
(dp252
g7
F0.85
sg13
I234591
sg14
F0.34
sg15
S'/Users/benedikt.terhechte/Desktop/benchmark/builds/chunks_imperative_c'
p253
sg17
F0.48
sg18
I960819200
sba(i__main__
BenchResult
p254
(dp255
g7
F0.87
sg13
I234594
sg14
F0.36
sg15
g253
sg17
F0.5
sg18
I960831488
sba(i__main__
BenchResult
p256
(dp257
g7
F0.81
sg13
I234591
sg14
F0.33
sg15
g253
sg17
F0.46
sg18
I960819200
sba(i__main__
BenchResult
p258
(dp259
g7
F0.82
sg13
I234591
sg14
F0.35
sg15
g253
sg17
F0.46
sg18
I960819200
sba(i__main__
BenchResult
p260
(dp261
g7
F0.86
sg13
I234591
sg14
F0.35
sg15
g253
sg17
F0.5
sg18
I960819200
sbasbaaa(lp262
S'Compile: Chunks Imperative'
p263
a(lp264
(i__main__
BenchResult
p265
(dp266
g7
F1.02
sg8
I01
sg9
S'Chunks Imperative'
p267
sg11
g12
sg13
I24799
sg14
F0.13
sg15
S'swiftc -O /Users/benedikt.terhechte/Desktop/benchmark/sources/chunks_imperative_swift.swift -o /Users/benedikt.terhechte/Desktop/benchmark/builds/chunks_imperative_swift'
p268
sg17
F0.69
sg18
I48754688
sba(i__main__
BenchResult
p269
(dp270
g7
F1.17
sg8
I01
sg9
g267
sg11
g21
sg13
I17306
sg14
F0.22
sg15
S'rustc -O /Users/benedikt.terhechte/Desktop/benchmark/sources/chunks_imperative_rust.rs -o /Users/benedikt.terhechte/Desktop/benchmark/builds/chunks_imperative_rust'
p271
sg17
F0.86
sg18
I84930560
sba(i__main__
BenchResult
p272
(dp273
g7
F27.89
sg8
I01
sg9
g267
sg11
g25
sg13
I397443
sg14
F1.81
sg15
S'/Users/benedikt.terhechte/Downloads/kotlin-native-macos-0.9.3/bin/kotlinc -opt /Users/benedikt.terhechte/Desktop/benchmark/sources/chunks_imperative_kotlin.kt -o /Users/benedikt.terhechte/Desktop/benchmark/builds/chunks_imperative_kotlin.kexe'
p274
sg17
F49.24
sg18
I1277669376
sba(i__main__
BenchResult
p275
(dp276
g7
F0.21
sg8
I01
sg9
g267
sg11
g202
sg13
I10982
sg14
F0.03
sg15
S'clang -O2 /Users/benedikt.terhechte/Desktop/benchmark/sources/chunks_imperative_c.c -o /Users/benedikt.terhechte/Desktop/benchmark/builds/chunks_imperative_c'
p277
sg17
F0.15
sg18
I31858688
sbaaa(lp278
g267
a(lp279
(i__main__
BenchResult
p280
(dp281
g7
F1.014
sg9
g267
sg11
g12
sg13
I235821
sg14
F0.35600000000000004
sg17
F0.6380000000000001
sg18
I965807308
sg31
I00
sg32
(lp282
(i__main__
BenchResult
p283
(dp284
g7
F1.03
sg13
I235727
sg14
F0.36
sg15
S'/Users/benedikt.terhechte/Desktop/benchmark/builds/chunks_imperative_swift'
p285
sg17
F0.64
sg18
I965808128
sba(i__main__
BenchResult
p286
(dp287
g7
F1.04
sg13
I235839
sg14
F0.36
sg15
g285
sg17
F0.66
sg18
I965783552
sba(i__main__
BenchResult
p288
(dp289
g7
F1.03
sg13
I235836
sg14
F0.36
sg15
g285
sg17
F0.65
sg18
I965771264
sba(i__main__
BenchResult
p290
(dp291
g7
F1.05
sg13
I235853
sg14
F0.37
sg15
g285
sg17
F0.66
sg18
I965840896
sba(i__main__
BenchResult
p292
(dp293
g7
F0.92
sg13
I235851
sg14
F0.33
sg15
g285
sg17
F0.58
sg18
I965832704
sbasba(i__main__
BenchResult
p294
(dp295
g7
F1.2200000000000002
sg9
g267
sg11
g21
sg13
I261606
sg14
F0.39
sg17
F0.818
sg18
I990314496
sg31
I00
sg32
(lp296
(i__main__
BenchResult
p297
(dp298
g7
F1.22
sg13
I284481
sg14
F0.4
sg15
S'/Users/benedikt.terhechte/Desktop/benchmark/builds/chunks_imperative_rust'
p299
sg17
F0.81
sg18
I1029902336
sba(i__main__
BenchResult
p300
(dp301
g7
F1.26
sg13
I268097
sg14
F0.42
sg15
g299
sg17
F0.83
sg18
I962793472
sba(i__main__
BenchResult
p302
(dp303
g7
F1.13
sg13
I243298
sg14
F0.34
sg15
g299
sg17
F0.78
sg18
I996487168
sba(i__main__
BenchResult
p304
(dp305
g7
F1.29
sg13
I268097
sg14
F0.42
sg15
g299
sg17
F0.85
sg18
I962793472
sba(i__main__
BenchResult
p306
(dp307
g7
F1.2
sg13
I244057
sg14
F0.37
sg15
g299
sg17
F0.82
sg18
I999596032
sbasba(i__main__
BenchResult
p308
(dp309
g7
F9.548
sg9
g267
sg11
g25
sg13
I118927
sg14
F0.21800000000000003
sg17
F9.290000000000001
sg18
I486930022
sg31
I00
sg32
(lp310
(i__main__
BenchResult
p311
(dp312
g7
F9.23
sg13
I118916
sg14
F0.2
sg15
S'/Users/benedikt.terhechte/Desktop/benchmark/builds/chunks_imperative_kotlin.kexe'
p313
sg17
F8.98
sg18
I486883328
sba(i__main__
BenchResult
p314
(dp315
g7
F9.51
sg13
I118951
sg14
F0.23
sg15
g313
sg17
F9.23
sg18
I487022592
sba(i__main__
BenchResult
p316
(dp317
g7
F9.48
sg13
I118930
sg14
F0.21
sg15
g313
sg17
F9.24
sg18
I486940672
sba(i__main__
BenchResult
p318
(dp319
g7
F9.73
sg13
I118928
sg14
F0.22
sg15
g313
sg17
F9.48
sg18
I486928384
sba(i__main__
BenchResult
p320
(dp321
g7
F9.79
sg13
I118914
sg14
F0.23
sg15
g313
sg17
F9.52
sg18
I486875136
sbasba(i__main__
BenchResult
p322
(dp323
g7
F0.882
sg9
g267
sg11
g202
sg13
I234590
sg14
F0.378
sg17
F0.49000000000000005
sg18
I960819200
sg31
I00
sg32
(lp324
(i__main__
BenchResult
p325
(dp326
g7
F0.84
sg13
I234591
sg14
F0.36
sg15
S'/Users/benedikt.terhechte/Desktop/benchmark/builds/chunks_imperative_c'
p327
sg17
F0.46
sg18
I960819200
sba(i__main__
BenchResult
p328
(dp329
g7
F0.88
sg13
I234591
sg14
F0.37
sg15
g327
sg17
F0.49
sg18
I960819200
sba(i__main__
BenchResult
p330
(dp331
g7
F0.89
sg13
I234591
sg14
F0.38
sg15
g327
sg17
F0.49
sg18
I960819200
sba(i__main__
BenchResult
p332
(dp333
g7
F0.92
sg13
I234591
sg14
F0.39
sg15
g327
sg17
F0.52
sg18
I960819200
sba(i__main__
BenchResult
p334
(dp335
g7
F0.88
sg13
I234590
sg14
F0.39
sg15
g327
sg17
F0.49
sg18
I960819200
sbasbaaa(lp336
S'Compile: JSON'
p337
a(lp338
(i__main__
BenchResult
p339
(dp340
g7
F1.53
sg8
I01
sg9
S'JSON'
p341
sg11
g12
sg13
I33935
sg14
F0.22
sg15
S'swiftc -O /Users/benedikt.terhechte/Desktop/benchmark/sources/json_swift.swift -o /Users/benedikt.terhechte/Desktop/benchmark/builds/json_swift'
p342
sg17
F1.01
sg18
I71237632
sba(i__main__
BenchResult
p343
(dp344
g7
F51.05
sg8
I01
sg9
g341
sg11
g21
sg13
I762595
sg14
F3.87
sg15
S'cargo build --release'
p345
sg17
F147.69
sg18
I314863616
sbaaa(lp346
g341
a(lp347
(i__main__
BenchResult
p348
(dp349
g7
F4.26
sg9
g341
sg11
g12
sg13
I23259
sg14
F0.052000000000000005
sg17
F4.029999999999999
sg18
I95150899
sg31
I00
sg32
(lp350
(i__main__
BenchResult
p351
(dp352
g7
F4.86
sg13
I23100
sg14
F0.07
sg15
S'/Users/benedikt.terhechte/Desktop/benchmark/builds/json_swift'
p353
sg17
F3.99
sg18
I95141888
sba(i__main__
BenchResult
p354
(dp355
g7
F3.99
sg13
I23294
sg14
F0.05
sg15
g353
sg17
F3.92
sg18
I95133696
sba(i__main__
BenchResult
p356
(dp357
g7
F4.13
sg13
I23300
sg14
F0.05
sg15
g353
sg17
F4.06
sg18
I95158272
sba(i__main__
BenchResult
p358
(dp359
g7
F4.18
sg13
I23304
sg14
F0.04
sg15
g353
sg17
F4.11
sg18
I95174656
sba(i__main__
BenchResult
p360
(dp361
g7
F4.14
sg13
I23297
sg14
F0.05
sg15
g353
sg17
F4.07
sg18
I95145984
sbasba(i__main__
BenchResult
p362
(dp363
g7
F0.23399999999999999
sg9
g341
sg11
g21
sg13
I17599
sg14
F0.046000000000000006
sg17
F0.17200000000000001
sg18
I71965081
sg31
I00
sg32
(lp364
(i__main__
BenchResult
p365
(dp366
g7
F0.24
sg13
I17600
sg14
F0.05
sg15
S'/Users/benedikt.terhechte/Desktop/benchmark/builds/json_rust'
p367
sg17
F0.17
sg18
I71962624
sba(i__main__
BenchResult
p368
(dp369
g7
F0.25
sg13
I17603
sg14
F0.05
sg15
g367
sg17
F0.18
sg18
I71974912
sba(i__main__
BenchResult
p370
(dp371
g7
F0.22
sg13
I17597
sg14
F0.04
sg15
g367
sg17
F0.17
sg18
I71962624
sba(i__main__
BenchResult
p372
(dp373
g7
F0.22
sg13
I17599
sg14
F0.04
sg15
g367
sg17
F0.16
sg18
I71962624
sba(i__main__
BenchResult
p374
(dp375
g7
F0.24
sg13
I17599
sg14
F0.05
sg15
g367
sg17
F0.18
sg18
I71962624
sbasbaaatp376
Rp377
.