ccollections
OrderedDict
p0
((lp1
(lp2
S'Compile: Primes Functional'
p3
a(lp4
(i__main__
BenchResult
p5
(dp6
S'real'
p7
F0.63
sS'is_compile'
p8
I01
sS'name'
p9
S'Primes Functional'
p10
sS'language'
p11
S'Swift'
p12
sS'page_reclaims'
p13
I7566
sS'sys'
p14
F0.32
sS'command'
p15
S'swiftc -O /Users/terhechte/Development/Other/crossplatform-language-benchmarks/sources/prime_swift.swift -o /Users/terhechte/Development/Other/crossplatform-language-benchmarks/builds/prime_swift'
p16
sS'user'
p17
F0.13
sS'resident_set_size'
p18
I40513536
sba(i__main__
BenchResult
p19
(dp20
g7
F0.53
sg8
I01
sg9
g10
sg11
S'Rust'
p21
sg13
I12360
sg14
F0.1
sg15
S'rustc -O /Users/terhechte/Development/Other/crossplatform-language-benchmarks/sources/prime_rust.rs -o /Users/terhechte/Development/Other/crossplatform-language-benchmarks/builds/prime_rust'
p22
sg17
F0.16
sg18
I75096064
sba(i__main__
BenchResult
p23
(dp24
g7
F11.26
sg8
I01
sg9
g10
sg11
S'Kotlin'
p25
sg13
I186632
sg14
F0.63
sg15
S'/Users/terhechte/Downloads/kotlin-native-macos-1.3.11/bin/kotlinc -opt /Users/terhechte/Development/Other/crossplatform-language-benchmarks/sources/prime_kotlin.kt -o /Users/terhechte/Development/Other/crossplatform-language-benchmarks/builds/prime_kotlin.kexe'
p26
sg17
F16.5
sg18
I440795136
sba(i__main__
BenchResult
p27
(dp28
g7
F0.35
sg8
I01
sg9
g10
sg11
S'C++'
p29
sg13
I17331
sg14
F0.05
sg15
S'clang++ -std=c++17 -O2 /Users/terhechte/Development/Other/crossplatform-language-benchmarks/sources/prime_cpp.cpp -o /Users/terhechte/Development/Other/crossplatform-language-benchmarks/builds/prime_cpp'
p30
sg17
F0.28
sg18
I57581568
sbaaa(lp31
g10
a(lp32
(i__main__
BenchResult
p33
(dp34
g7
F2.4520000000000004
sg9
g10
sg11
g12
sg13
I1461
sg14
F0.0
sg17
F2.446
sg18
I5799936
sS'fail'
p35
I00
sS'children'
p36
(lp37
(i__main__
BenchResult
p38
(dp39
g7
F2.45
sg13
I1423
sg14
F0.0
sg15
S'/Users/terhechte/Development/Other/crossplatform-language-benchmarks/builds/prime_swift'
p40
sg17
F2.44
sg18
I5799936
sba(i__main__
BenchResult
p41
(dp42
g7
F2.45
sg13
I1471
sg14
F0.0
sg15
g40
sg17
F2.44
sg18
I5799936
sba(i__main__
BenchResult
p43
(dp44
g7
F2.46
sg13
I1471
sg14
F0.0
sg15
g40
sg17
F2.45
sg18
I5799936
sba(i__main__
BenchResult
p45
(dp46
g7
F2.45
sg13
I1471
sg14
F0.0
sg15
g40
sg17
F2.45
sg18
I5799936
sba(i__main__
BenchResult
p47
(dp48
g7
F2.45
sg13
I1471
sg14
F0.0
sg15
g40
sg17
F2.45
sg18
I5799936
sbasba(i__main__
BenchResult
p49
(dp50
g7
F0.852
sg9
g10
sg11
g21
sg13
I236
sg14
F0.0
sg17
F0.85
sg18
I914227
sg35
I00
sg36
(lp51
(i__main__
BenchResult
p52
(dp53
g7
F0.85
sg13
I241
sg14
F0.0
sg15
S'/Users/terhechte/Development/Other/crossplatform-language-benchmarks/builds/prime_rust'
p54
sg17
F0.85
sg18
I933888
sba(i__main__
BenchResult
p55
(dp56
g7
F0.86
sg13
I235
sg14
F0.0
sg15
g54
sg17
F0.85
sg18
I909312
sba(i__main__
BenchResult
p57
(dp58
g7
F0.85
sg13
I235
sg14
F0.0
sg15
g54
sg17
F0.85
sg18
I909312
sba(i__main__
BenchResult
p59
(dp60
g7
F0.85
sg13
I235
sg14
F0.0
sg15
g54
sg17
F0.85
sg18
I909312
sba(i__main__
BenchResult
p61
(dp62
g7
F0.85
sg13
I235
sg14
F0.0
sg15
g54
sg17
F0.85
sg18
I909312
sbasba(i__main__
BenchResult
p63
(dp64
g7
F90.386
sg9
g10
sg11
g25
sg13
I1388
sg14
F0.02
sg17
F90.34
sg18
I5480448
sg35
I00
sg36
(lp65
(i__main__
BenchResult
p66
(dp67
g7
F90.43
sg13
I1388
sg14
F0.02
sg15
S'/Users/terhechte/Development/Other/crossplatform-language-benchmarks/builds/prime_kotlin.kexe'
p68
sg17
F90.38
sg18
I5480448
sba(i__main__
BenchResult
p69
(dp70
g7
F90.39
sg13
I1388
sg14
F0.02
sg15
g68
sg17
F90.35
sg18
I5480448
sba(i__main__
BenchResult
p71
(dp72
g7
F90.32
sg13
I1388
sg14
F0.02
sg15
g68
sg17
F90.28
sg18
I5480448
sba(i__main__
BenchResult
p73
(dp74
g7
F90.43
sg13
I1388
sg14
F0.02
sg15
g68
sg17
F90.38
sg18
I5480448
sba(i__main__
BenchResult
p75
(dp76
g7
F90.36
sg13
I1388
sg14
F0.02
sg15
g68
sg17
F90.31
sg18
I5480448
sbasba(i__main__
BenchResult
p77
(dp78
g7
F0.85
sg9
g10
sg11
g29
sg13
I213
sg14
F0.0
sg17
F0.85
sg18
I823296
sg35
I00
sg36
(lp79
(i__main__
BenchResult
p80
(dp81
g7
F0.85
sg13
I213
sg14
F0.0
sg15
S'/Users/terhechte/Development/Other/crossplatform-language-benchmarks/builds/prime_cpp'
p82
sg17
F0.85
sg18
I823296
sba(i__main__
BenchResult
p83
(dp84
g7
F0.85
sg13
I213
sg14
F0.0
sg15
g82
sg17
F0.85
sg18
I823296
sba(i__main__
BenchResult
p85
(dp86
g7
F0.85
sg13
I213
sg14
F0.0
sg15
g82
sg17
F0.85
sg18
I823296
sba(i__main__
BenchResult
p87
(dp88
g7
F0.85
sg13
I213
sg14
F0.0
sg15
g82
sg17
F0.85
sg18
I823296
sba(i__main__
BenchResult
p89
(dp90
g7
F0.85
sg13
I213
sg14
F0.0
sg15
g82
sg17
F0.85
sg18
I823296
sbasbaaa(lp91
S'Compile: Strings Functional'
p92
a(lp93
(i__main__
BenchResult
p94
(dp95
g7
F1.33
sg8
I01
sg9
S'Strings Functional'
p96
sg11
g12
sg13
I29769
sg14
F0.18
sg15
S'swiftc -O /Users/terhechte/Development/Other/crossplatform-language-benchmarks/sources/strings_functional_swift.swift -o /Users/terhechte/Development/Other/crossplatform-language-benchmarks/builds/strings_functional_swift'
p97
sg17
F1.01
sg18
I97714176
sba(i__main__
BenchResult
p98
(dp99
g7
F0.31
sg8
I01
sg9
g96
sg11
g21
sg13
I30481
sg14
F0.06
sg15
S'rustc -O /Users/terhechte/Development/Other/crossplatform-language-benchmarks/sources/strings_functional_rust.rs -o /Users/terhechte/Development/Other/crossplatform-language-benchmarks/builds/strings_functional_rust'
p100
sg17
F0.48
sg18
I94818304
sba(i__main__
BenchResult
p101
(dp102
g7
F12.52
sg8
I01
sg9
g96
sg11
g25
sg13
I239413
sg14
F0.57
sg15
S'/Users/terhechte/Downloads/kotlin-native-macos-1.3.11/bin/kotlinc -opt /Users/terhechte/Development/Other/crossplatform-language-benchmarks/sources/strings_functional_kotlin.kt -o /Users/terhechte/Development/Other/crossplatform-language-benchmarks/builds/strings_functional_kotlin.kexe'
p103
sg17
F19.0
sg18
I500695040
sba(i__main__
BenchResult
p104
(dp105
g7
F0.6
sg8
I01
sg9
g96
sg11
g29
sg13
I20893
sg14
F0.03
sg15
S'clang++ -std=c++17 -O2 /Users/terhechte/Development/Other/crossplatform-language-benchmarks/sources/strings_functional_cpp.cpp -o /Users/terhechte/Development/Other/crossplatform-language-benchmarks/builds/strings_functional_cpp'
p106
sg17
F0.56
sg18
I71036928
sbaaa(lp107
g96
a(lp108
(i__main__
BenchResult
p109
(dp110
g7
F2.5439999999999996
sg9
g96
sg11
g12
sg13
I49170
sg14
F0.044000000000000004
sg17
F2.486
sg18
I201138176
sg35
I00
sg36
(lp111
(i__main__
BenchResult
p112
(dp113
g7
F2.57
sg13
I49118
sg14
F0.05
sg15
S'/Users/terhechte/Development/Other/crossplatform-language-benchmarks/builds/strings_functional_swift'
p114
sg17
F2.51
sg18
I201015296
sba(i__main__
BenchResult
p115
(dp116
g7
F2.52
sg13
I49127
sg14
F0.04
sg15
g114
sg17
F2.47
sg18
I200937472
sba(i__main__
BenchResult
p117
(dp118
g7
F2.54
sg13
I49210
sg14
F0.05
sg15
g114
sg17
F2.48
sg18
I201277440
sba(i__main__
BenchResult
p119
(dp120
g7
F2.56
sg13
I49174
sg14
F0.04
sg15
g114
sg17
F2.5
sg18
I201129984
sba(i__main__
BenchResult
p121
(dp122
g7
F2.53
sg13
I49223
sg14
F0.04
sg15
g114
sg17
F2.47
sg18
I201330688
sbasba(i__main__
BenchResult
p123
(dp124
g7
F0.032
sg9
g96
sg11
g21
sg13
I1854
sg14
F0.0
sg17
F0.03
sg18
I7542374
sg35
I00
sg36
(lp125
(i__main__
BenchResult
p126
(dp127
g7
F0.03
sg13
I1852
sg14
F0.0
sg15
S'/Users/terhechte/Development/Other/crossplatform-language-benchmarks/builds/strings_functional_rust'
p128
sg17
F0.03
sg18
I7532544
sba(i__main__
BenchResult
p129
(dp130
g7
F0.03
sg13
I1856
sg14
F0.0
sg15
g128
sg17
F0.03
sg18
I7548928
sba(i__main__
BenchResult
p131
(dp132
g7
F0.04
sg13
I1856
sg14
F0.0
sg15
g128
sg17
F0.03
sg18
I7548928
sba(i__main__
BenchResult
p133
(dp134
g7
F0.03
sg13
I1852
sg14
F0.0
sg15
g128
sg17
F0.03
sg18
I7532544
sba(i__main__
BenchResult
p135
(dp136
g7
F0.03
sg13
I1856
sg14
F0.0
sg15
g128
sg17
F0.03
sg18
I7548928
sbasba(i__main__
BenchResult
p137
(dp138
g7
F1.816
sg9
g96
sg11
g25
sg13
I177510
sg14
F0.192
sg17
F1.614
sg18
I600793088
sg35
I00
sg36
(lp139
(i__main__
BenchResult
p140
(dp141
g7
F1.8
sg13
I177547
sg14
F0.19
sg15
S'/Users/terhechte/Development/Other/crossplatform-language-benchmarks/builds/strings_functional_kotlin.kexe'
p142
sg17
F1.61
sg18
I600956928
sba(i__main__
BenchResult
p143
(dp144
g7
F1.82
sg13
I177569
sg14
F0.19
sg15
g142
sg17
F1.61
sg18
I600965120
sba(i__main__
BenchResult
p145
(dp146
g7
F1.85
sg13
I177640
sg14
F0.2
sg15
g142
sg17
F1.64
sg18
I601317376
sba(i__main__
BenchResult
p147
(dp148
g7
F1.8
sg13
I177161
sg14
F0.19
sg15
g142
sg17
F1.6
sg18
I599388160
sba(i__main__
BenchResult
p149
(dp150
g7
F1.81
sg13
I177637
sg14
F0.19
sg15
g142
sg17
F1.61
sg18
I601337856
sbasba(i__main__
BenchResult
p151
(dp152
g7
F0.14
sg9
g96
sg11
g29
sg13
I20049
sg14
F0.02
sg17
F0.11599999999999999
sg18
I82071552
sg35
I00
sg36
(lp153
(i__main__
BenchResult
p154
(dp155
g7
F0.14
sg13
I20060
sg14
F0.02
sg15
S'/Users/terhechte/Development/Other/crossplatform-language-benchmarks/builds/strings_functional_cpp'
p156
sg17
F0.11
sg18
I82116608
sba(i__main__
BenchResult
p157
(dp158
g7
F0.14
sg13
I20061
sg14
F0.02
sg15
g156
sg17
F0.11
sg18
I82120704
sba(i__main__
BenchResult
p159
(dp160
g7
F0.14
sg13
I20029
sg14
F0.02
sg15
g156
sg17
F0.12
sg18
I81989632
sba(i__main__
BenchResult
p161
(dp162
g7
F0.14
sg13
I20033
sg14
F0.02
sg15
g156
sg17
F0.12
sg18
I82006016
sba(i__main__
BenchResult
p163
(dp164
g7
F0.14
sg13
I20062
sg14
F0.02
sg15
g156
sg17
F0.12
sg18
I82124800
sbasbaaa(lp165
S'Compile: Strings Imperative'
p166
a(lp167
(i__main__
BenchResult
p168
(dp169
g7
F0.87
sg8
I01
sg9
S'Strings Imperative'
p170
sg11
g12
sg13
I32225
sg14
F0.06
sg15
S'swiftc -O /Users/terhechte/Development/Other/crossplatform-language-benchmarks/sources/strings_imperative_swift.swift -o /Users/terhechte/Development/Other/crossplatform-language-benchmarks/builds/strings_imperative_swift'
p171
sg17
F0.8
sg18
I91541504
sba(i__main__
BenchResult
p172
(dp173
g7
F0.31
sg8
I01
sg9
g170
sg11
g21
sg13
I30828
sg14
F0.06
sg15
S'rustc -O /Users/terhechte/Development/Other/crossplatform-language-benchmarks/sources/strings_imperative_rust.rs -o /Users/terhechte/Development/Other/crossplatform-language-benchmarks/builds/strings_imperative_rust'
p174
sg17
F0.49
sg18
I94081024
sba(i__main__
BenchResult
p175
(dp176
g7
F12.26
sg8
I01
sg9
g170
sg11
g25
sg13
I216086
sg14
F0.52
sg15
S'/Users/terhechte/Downloads/kotlin-native-macos-1.3.11/bin/kotlinc -opt /Users/terhechte/Development/Other/crossplatform-language-benchmarks/sources/strings_imperative_kotlin.kt -o /Users/terhechte/Development/Other/crossplatform-language-benchmarks/builds/strings_imperative_kotlin.kexe'
p177
sg17
F17.77
sg18
I446320640
sba(i__main__
BenchResult
p178
(dp179
g7
F0.48
sg8
I01
sg9
g170
sg11
g29
sg13
I19643
sg14
F0.03
sg15
S'clang++ -std=c++17 -O2 /Users/terhechte/Development/Other/crossplatform-language-benchmarks/sources/strings_imperative_cpp.cpp -o /Users/terhechte/Development/Other/crossplatform-language-benchmarks/builds/strings_imperative_cpp'
p180
sg17
F0.44
sg18
I65613824
sbaaa(lp181
g170
a(lp182
(i__main__
BenchResult
p183
(dp184
g7
F2.218
sg9
g170
sg11
g12
sg13
I49137
sg14
F0.048
sg17
F2.1599999999999997
sg18
I200978432
sg35
I00
sg36
(lp185
(i__main__
BenchResult
p186
(dp187
g7
F2.23
sg13
I49137
sg14
F0.05
sg15
S'/Users/terhechte/Development/Other/crossplatform-language-benchmarks/builds/strings_imperative_swift'
p188
sg17
F2.17
sg18
I200978432
sba(i__main__
BenchResult
p189
(dp190
g7
F2.24
sg13
I49168
sg14
F0.05
sg15
g188
sg17
F2.18
sg18
I201105408
sba(i__main__
BenchResult
p191
(dp192
g7
F2.19
sg13
I49123
sg14
F0.04
sg15
g188
sg17
F2.13
sg18
I200921088
sba(i__main__
BenchResult
p193
(dp194
g7
F2.2
sg13
I49119
sg14
F0.05
sg15
g188
sg17
F2.15
sg18
I200904704
sba(i__main__
BenchResult
p195
(dp196
g7
F2.23
sg13
I49138
sg14
F0.05
sg15
g188
sg17
F2.17
sg18
I200982528
sbasba(i__main__
BenchResult
p197
(dp198
g7
F0.032
sg9
g170
sg11
g21
sg13
I1854
sg14
F0.0
sg17
F0.03
sg18
I7542374
sg35
I00
sg36
(lp199
(i__main__
BenchResult
p200
(dp201
g7
F0.03
sg13
I1852
sg14
F0.0
sg15
S'/Users/terhechte/Development/Other/crossplatform-language-benchmarks/builds/strings_imperative_rust'
p202
sg17
F0.03
sg18
I7532544
sba(i__main__
BenchResult
p203
(dp204
g7
F0.03
sg13
I1856
sg14
F0.0
sg15
g202
sg17
F0.03
sg18
I7548928
sba(i__main__
BenchResult
p205
(dp206
g7
F0.04
sg13
I1856
sg14
F0.0
sg15
g202
sg17
F0.03
sg18
I7548928
sba(i__main__
BenchResult
p207
(dp208
g7
F0.03
sg13
I1856
sg14
F0.0
sg15
g202
sg17
F0.03
sg18
I7548928
sba(i__main__
BenchResult
p209
(dp210
g7
F0.03
sg13
I1852
sg14
F0.0
sg15
g202
sg17
F0.03
sg18
I7532544
sbasba(i__main__
BenchResult
p211
(dp212
g7
F1.5239999999999998
sg9
g170
sg11
g25
sg13
I177470
sg14
F0.188
sg17
F1.33
sg18
I600616140
sg35
I00
sg36
(lp213
(i__main__
BenchResult
p214
(dp215
g7
F1.53
sg13
I177541
sg14
F0.19
sg15
S'/Users/terhechte/Development/Other/crossplatform-language-benchmarks/builds/strings_imperative_kotlin.kexe'
p216
sg17
F1.33
sg18
I600838144
sba(i__main__
BenchResult
p217
(dp218
g7
F1.53
sg13
I177838
sg14
F0.19
sg15
g216
sg17
F1.33
sg18
I602132480
sba(i__main__
BenchResult
p219
(dp220
g7
F1.52
sg13
I177256
sg14
F0.19
sg15
g216
sg17
F1.33
sg18
I599760896
sba(i__main__
BenchResult
p221
(dp222
g7
F1.52
sg13
I177351
sg14
F0.18
sg15
g216
sg17
F1.33
sg18
I600170496
sba(i__main__
BenchResult
p223
(dp224
g7
F1.52
sg13
I177364
sg14
F0.19
sg15
g216
sg17
F1.33
sg18
I600178688
sbasba(i__main__
BenchResult
p225
(dp226
g7
F0.1
sg9
g170
sg11
g29
sg13
I6368
sg14
F0.0
sg17
F0.09
sg18
I26034176
sg35
I00
sg36
(lp227
(i__main__
BenchResult
p228
(dp229
g7
F0.1
sg13
I6370
sg14
F0.0
sg15
S'/Users/terhechte/Development/Other/crossplatform-language-benchmarks/builds/strings_imperative_cpp'
p230
sg17
F0.09
sg18
I26042368
sba(i__main__
BenchResult
p231
(dp232
g7
F0.1
sg13
I6370
sg14
F0.0
sg15
g230
sg17
F0.09
sg18
I26042368
sba(i__main__
BenchResult
p233
(dp234
g7
F0.1
sg13
I6370
sg14
F0.0
sg15
g230
sg17
F0.09
sg18
I26042368
sba(i__main__
BenchResult
p235
(dp236
g7
F0.1
sg13
I6365
sg14
F0.0
sg15
g230
sg17
F0.09
sg18
I26021888
sba(i__main__
BenchResult
p237
(dp238
g7
F0.1
sg13
I6365
sg14
F0.0
sg15
g230
sg17
F0.09
sg18
I26021888
sbasbaaa(lp239
S'Compile: Chunks Functional'
p240
a(lp241
(i__main__
BenchResult
p242
(dp243
g7
F0.59
sg8
I01
sg9
S'Chunks Functional'
p244
sg11
g12
sg13
I18848
sg14
F0.03
sg15
S'swiftc -O /Users/terhechte/Development/Other/crossplatform-language-benchmarks/sources/chunks_functional_swift.swift -o /Users/terhechte/Development/Other/crossplatform-language-benchmarks/builds/chunks_functional_swift'
p245
sg17
F0.55
sg18
I56037376
sba(i__main__
BenchResult
p246
(dp247
g7
F0.28
sg8
I01
sg9
g244
sg11
g21
sg13
I30770
sg14
F0.06
sg15
S'rustc -O /Users/terhechte/Development/Other/crossplatform-language-benchmarks/sources/chunks_functional_rust.rs -o /Users/terhechte/Development/Other/crossplatform-language-benchmarks/builds/chunks_functional_rust'
p248
sg17
F0.45
sg18
I95125504
sba(i__main__
BenchResult
p249
(dp250
g7
F12.59
sg8
I01
sg9
g244
sg11
g25
sg13
I224890
sg14
F0.52
sg15
S'/Users/terhechte/Downloads/kotlin-native-macos-1.3.11/bin/kotlinc -opt /Users/terhechte/Development/Other/crossplatform-language-benchmarks/sources/chunks_functional_kotlin.kt -o /Users/terhechte/Development/Other/crossplatform-language-benchmarks/builds/chunks_functional_kotlin.kexe'
p251
sg17
F18.9
sg18
I512364544
sba(i__main__
BenchResult
p252
(dp253
g7
F0.17
sg8
I01
sg9
g244
sg11
S'C'
p254
sg13
I10122
sg14
F0.05
sg15
S'clang -O2 /Users/terhechte/Development/Other/crossplatform-language-benchmarks/sources/chunks_imperative_c.c -o /Users/terhechte/Development/Other/crossplatform-language-benchmarks/builds/chunks_imperative_c'
p255
sg17
F0.1
sg18
I32174080
sbaaa(lp256
g244
a(lp257
(i__main__
BenchResult
p258
(dp259
g7
F8.066
sg9
g244
sg11
g12
sg13
I653726
sg14
F0.7840000000000001
sg17
F7.2700000000000005
sg18
I1705904537
sg35
I00
sg36
(lp260
(i__main__
BenchResult
p261
(dp262
g7
F8.08
sg13
I654227
sg14
F0.78
sg15
S'/Users/terhechte/Development/Other/crossplatform-language-benchmarks/builds/chunks_functional_swift'
p263
sg17
F7.28
sg18
I1705910272
sba(i__main__
BenchResult
p264
(dp265
g7
F8.05
sg13
I653221
sg14
F0.78
sg15
g263
sg17
F7.27
sg18
I1705902080
sba(i__main__
BenchResult
p266
(dp267
g7
F8.11
sg13
I654308
sg14
F0.8
sg15
g263
sg17
F7.3
sg18
I1705906176
sba(i__main__
BenchResult
p268
(dp269
g7
F8.05
sg13
I654044
sg14
F0.78
sg15
g263
sg17
F7.25
sg18
I1705889792
sba(i__main__
BenchResult
p270
(dp271
g7
F8.04
sg13
I652833
sg14
F0.78
sg15
g263
sg17
F7.25
sg18
I1705914368
sbasba(i__main__
BenchResult
p272
(dp273
g7
F0.692
sg9
g244
sg11
g21
sg13
I259848
sg14
F0.26
sg17
F0.422
sg18
I982486220
sg35
I00
sg36
(lp274
(i__main__
BenchResult
p275
(dp276
g7
F0.71
sg13
I267430
sg14
F0.27
sg15
S'/Users/terhechte/Development/Other/crossplatform-language-benchmarks/builds/chunks_functional_rust'
p277
sg17
F0.43
sg18
I961110016
sba(i__main__
BenchResult
p278
(dp279
g7
F0.68
sg13
I252054
sg14
F0.25
sg15
g277
sg17
F0.42
sg18
I1030254592
sba(i__main__
BenchResult
p280
(dp281
g7
F0.7
sg13
I267434
sg14
F0.27
sg15
g277
sg17
F0.42
sg18
I961130496
sba(i__main__
BenchResult
p282
(dp283
g7
F0.67
sg13
I244908
sg14
F0.25
sg15
g277
sg17
F0.41
sg18
I998887424
sba(i__main__
BenchResult
p284
(dp285
g7
F0.7
sg13
I267414
sg14
F0.26
sg15
g277
sg17
F0.43
sg18
I961048576
sbasba(i__main__
BenchResult
p286
(dp287
g35
I01
sg36
(lp288
(i__main__
BenchResult
p289
(dp290
S'is_fail'
p291
I01
sba(i__main__
BenchResult
p292
(dp293
g291
I01
sba(i__main__
BenchResult
p294
(dp295
g291
I01
sba(i__main__
BenchResult
p296
(dp297
g291
I01
sba(i__main__
BenchResult
p298
(dp299
g291
I01
sbasg11
g25
sg9
g244
sba(i__main__
BenchResult
p300
(dp301
g7
F0.594
sg9
g244
sg11
g254
sg13
I234588
sg14
F0.25
sg17
F0.334
sg18
I960811008
sg35
I00
sg36
(lp302
(i__main__
BenchResult
p303
(dp304
g7
F0.62
sg13
I234589
sg14
F0.26
sg15
S'/Users/terhechte/Development/Other/crossplatform-language-benchmarks/builds/chunks_imperative_c'
p305
sg17
F0.35
sg18
I960811008
sba(i__main__
BenchResult
p306
(dp307
g7
F0.6
sg13
I234588
sg14
F0.25
sg15
g305
sg17
F0.34
sg18
I960811008
sba(i__main__
BenchResult
p308
(dp309
g7
F0.57
sg13
I234589
sg14
F0.25
sg15
g305
sg17
F0.31
sg18
I960811008
sba(i__main__
BenchResult
p310
(dp311
g7
F0.61
sg13
I234589
sg14
F0.25
sg15
g305
sg17
F0.35
sg18
I960811008
sba(i__main__
BenchResult
p312
(dp313
g7
F0.57
sg13
I234589
sg14
F0.24
sg15
g305
sg17
F0.32
sg18
I960811008
sbasbaaa(lp314
S'Compile: Chunks Imperative'
p315
a(lp316
(i__main__
BenchResult
p317
(dp318
g7
F0.41
sg8
I01
sg9
S'Chunks Imperative'
p319
sg11
g12
sg13
I16890
sg14
F0.04
sg15
S'swiftc -O /Users/terhechte/Development/Other/crossplatform-language-benchmarks/sources/chunks_imperative_swift.swift -o /Users/terhechte/Development/Other/crossplatform-language-benchmarks/builds/chunks_imperative_swift'
p320
sg17
F0.36
sg18
I51060736
sba(i__main__
BenchResult
p321
(dp322
g7
F0.67
sg8
I01
sg9
g319
sg11
g21
sg13
I17924
sg14
F0.12
sg15
S'rustc -O /Users/terhechte/Development/Other/crossplatform-language-benchmarks/sources/chunks_imperative_rust.rs -o /Users/terhechte/Development/Other/crossplatform-language-benchmarks/builds/chunks_imperative_rust'
p323
sg17
F0.5
sg18
I95293440
sba(i__main__
BenchResult
p324
(dp325
g7
F13.92
sg8
I01
sg9
g319
sg11
g25
sg13
I216443
sg14
F0.78
sg15
S'/Users/terhechte/Downloads/kotlin-native-macos-1.3.11/bin/kotlinc -opt /Users/terhechte/Development/Other/crossplatform-language-benchmarks/sources/chunks_imperative_kotlin.kt -o /Users/terhechte/Development/Other/crossplatform-language-benchmarks/builds/chunks_imperative_kotlin.kexe'
p326
sg17
F21.65
sg18
I470761472
sba(i__main__
BenchResult
p327
(dp328
g7
F0.12
sg8
I01
sg9
g319
sg11
g254
sg13
I11007
sg14
F0.02
sg15
S'clang -O2 /Users/terhechte/Development/Other/crossplatform-language-benchmarks/sources/chunks_imperative_c.c -o /Users/terhechte/Development/Other/crossplatform-language-benchmarks/builds/chunks_imperative_c'
p329
sg17
F0.09
sg18
I31887360
sbaaa(lp330
g319
a(lp331
(i__main__
BenchResult
p332
(dp333
g7
F0.696
sg9
g319
sg11
g12
sg13
I235845
sg14
F0.26
sg17
F0.42800000000000005
sg18
I965833523
sg35
I00
sg36
(lp334
(i__main__
BenchResult
p335
(dp336
g7
F0.69
sg13
I235808
sg14
F0.26
sg15
S'/Users/terhechte/Development/Other/crossplatform-language-benchmarks/builds/chunks_imperative_swift'
p337
sg17
F0.43
sg18
I965836800
sba(i__main__
BenchResult
p338
(dp339
g7
F0.72
sg13
I235855
sg14
F0.26
sg15
g337
sg17
F0.45
sg18
I965832704
sba(i__main__
BenchResult
p340
(dp341
g7
F0.67
sg13
I235855
sg14
F0.25
sg15
g337
sg17
F0.41
sg18
I965832704
sba(i__main__
BenchResult
p342
(dp343
g7
F0.71
sg13
I235855
sg14
F0.27
sg15
g337
sg17
F0.43
sg18
I965832704
sba(i__main__
BenchResult
p344
(dp345
g7
F0.69
sg13
I235855
sg14
F0.26
sg15
g337
sg17
F0.42
sg18
I965832704
sbasba(i__main__
BenchResult
p346
(dp347
g7
F0.764
sg9
g319
sg11
g21
sg13
I264467
sg14
F0.27
sg17
F0.484
sg18
I1006640332
sg35
I00
sg36
(lp348
(i__main__
BenchResult
p349
(dp350
g7
F0.8
sg13
I283816
sg14
F0.28
sg15
S'/Users/terhechte/Development/Other/crossplatform-language-benchmarks/builds/chunks_imperative_rust'
p351
sg17
F0.51
sg18
I1028227072
sba(i__main__
BenchResult
p352
(dp353
g7
F0.72
sg13
I244140
sg14
F0.25
sg15
g351
sg17
F0.46
sg18
I999931904
sba(i__main__
BenchResult
p354
(dp355
g7
F0.73
sg13
I243119
sg14
F0.26
sg15
g351
sg17
F0.46
sg18
I978976768
sba(i__main__
BenchResult
p356
(dp357
g7
F0.81
sg13
I283823
sg14
F0.28
sg15
g351
sg17
F0.51
sg18
I1028259840
sba(i__main__
BenchResult
p358
(dp359
g7
F0.76
sg13
I267438
sg14
F0.28
sg15
g351
sg17
F0.48
sg18
I997806080
sbasba(i__main__
BenchResult
p360
(dp361
g7
F5.756
sg9
g319
sg11
g25
sg13
I119031
sg14
F0.16000000000000003
sg17
F5.586
sg18
I487343718
sg35
I00
sg36
(lp362
(i__main__
BenchResult
p363
(dp364
g7
F5.75
sg13
I119069
sg14
F0.14
sg15
S'/Users/terhechte/Development/Other/crossplatform-language-benchmarks/builds/chunks_imperative_kotlin.kexe'
p365
sg17
F5.6
sg18
I487497728
sba(i__main__
BenchResult
p366
(dp367
g7
F5.78
sg13
I119047
sg14
F0.16
sg15
g365
sg17
F5.61
sg18
I487407616
sba(i__main__
BenchResult
p368
(dp369
g7
F5.77
sg13
I118999
sg14
F0.17
sg15
g365
sg17
F5.6
sg18
I487211008
sba(i__main__
BenchResult
p370
(dp371
g7
F5.74
sg13
I119047
sg14
F0.16
sg15
g365
sg17
F5.56
sg18
I487407616
sba(i__main__
BenchResult
p372
(dp373
g7
F5.74
sg13
I118995
sg14
F0.17
sg15
g365
sg17
F5.56
sg18
I487194624
sbasba(i__main__
BenchResult
p374
(dp375
g7
F0.67
sg9
g319
sg11
g254
sg13
I234589
sg14
F0.31
sg17
F0.352
sg18
I960811008
sg35
I00
sg36
(lp376
(i__main__
BenchResult
p377
(dp378
g7
F0.67
sg13
I234589
sg14
F0.31
sg15
S'/Users/terhechte/Development/Other/crossplatform-language-benchmarks/builds/chunks_imperative_c'
p379
sg17
F0.34
sg18
I960811008
sba(i__main__
BenchResult
p380
(dp381
g7
F0.67
sg13
I234589
sg14
F0.31
sg15
g379
sg17
F0.36
sg18
I960811008
sba(i__main__
BenchResult
p382
(dp383
g7
F0.66
sg13
I234589
sg14
F0.3
sg15
g379
sg17
F0.35
sg18
I960811008
sba(i__main__
BenchResult
p384
(dp385
g7
F0.7
sg13
I234589
sg14
F0.32
sg15
g379
sg17
F0.37
sg18
I960811008
sba(i__main__
BenchResult
p386
(dp387
g7
F0.65
sg13
I234589
sg14
F0.31
sg15
g379
sg17
F0.34
sg18
I960811008
sbasbaaa(lp388
S'Compile: JSON'
p389
a(lp390
(i__main__
BenchResult
p391
(dp392
g7
F0.77
sg8
I01
sg9
S'JSON'
p393
sg11
g12
sg13
I25433
sg14
F0.11
sg15
S'swiftc -O /Users/terhechte/Development/Other/crossplatform-language-benchmarks/sources/json_swift.swift -o /Users/terhechte/Development/Other/crossplatform-language-benchmarks/builds/json_swift'
p394
sg17
F0.56
sg18
I70950912
sba(i__main__
BenchResult
p395
(dp396
g7
F23.81
sg8
I01
sg9
g393
sg11
g21
sg13
I622636
sg14
F1.97
sg15
S'cargo build --release'
p397
sg17
F87.68
sg18
I486830080
sba(i__main__
BenchResult
p398
(dp399
g7
F33.28
sg8
I01
sg9
g393
sg11
g25
sg13
I29365
sg14
F0.11
sg15
S'/Users/terhechte/Development/Other/crossplatform-language-benchmarks/sources/json_kotlin/gradlew compileReleaseKotlinNative'
p400
sg17
F0.95
sg18
I95199232
sbaaa(lp401
g393
a(lp402
(i__main__
BenchResult
p403
(dp404
g7
F2.308
sg9
g393
sg11
g12
sg13
I23348
sg14
F0.032
sg17
F2.2619999999999996
sg18
I95363072
sg35
I00
sg36
(lp405
(i__main__
BenchResult
p406
(dp407
g7
F2.33
sg13
I23335
sg14
F0.04
sg15
S'/Users/terhechte/Development/Other/crossplatform-language-benchmarks/builds/json_swift'
p408
sg17
F2.27
sg18
I95399936
sba(i__main__
BenchResult
p409
(dp410
g7
F2.28
sg13
I23353
sg14
F0.03
sg15
g408
sg17
F2.24
sg18
I95358976
sba(i__main__
BenchResult
p411
(dp412
g7
F2.32
sg13
I23354
sg14
F0.03
sg15
g408
sg17
F2.28
sg18
I95363072
sba(i__main__
BenchResult
p413
(dp414
g7
F2.27
sg13
I23348
sg14
F0.03
sg15
g408
sg17
F2.23
sg18
I95338496
sba(i__main__
BenchResult
p415
(dp416
g7
F2.34
sg13
I23352
sg14
F0.03
sg15
g408
sg17
F2.29
sg18
I95354880
sbasba(i__main__
BenchResult
p417
(dp418
g7
F0.17400000000000002
sg9
g393
sg11
g21
sg13
I18571
sg14
F0.03
sg17
F0.14
sg18
I75994726
sg35
I00
sg36
(lp419
(i__main__
BenchResult
p420
(dp421
g7
F0.18
sg13
I18580
sg14
F0.03
sg15
S'/Users/terhechte/Development/Other/crossplatform-language-benchmarks/builds/json_rust'
p422
sg17
F0.14
sg18
I76050432
sba(i__main__
BenchResult
p423
(dp424
g7
F0.17
sg13
I18583
sg14
F0.03
sg15
g422
sg17
F0.14
sg18
I76062720
sba(i__main__
BenchResult
p425
(dp426
g7
F0.17
sg13
I18593
sg14
F0.03
sg15
g422
sg17
F0.14
sg18
I76103680
sba(i__main__
BenchResult
p427
(dp428
g7
F0.17
sg13
I18536
sg14
F0.03
sg15
g422
sg17
F0.14
sg18
I75821056
sba(i__main__
BenchResult
p429
(dp430
g7
F0.18
sg13
I18564
sg14
F0.03
sg15
g422
sg17
F0.14
sg18
I75935744
sbasba(i__main__
BenchResult
p431
(dp432
g7
F15.824000000000002
sg9
g393
sg11
g25
sg13
I2933027
sg14
F4.384
sg17
F11.422
sg18
I2911017369
sg35
I00
sg36
(lp433
(i__main__
BenchResult
p434
(dp435
g7
F15.86
sg13
I2933169
sg14
F4.39
sg15
S'/Users/terhechte/Development/Other/crossplatform-language-benchmarks/builds/json_kotlin'
p436
sg17
F11.45
sg18
I2909769728
sba(i__main__
BenchResult
p437
(dp438
g7
F15.79
sg13
I2933460
sg14
F4.35
sg15
g436
sg17
F11.42
sg18
I2912600064
sba(i__main__
BenchResult
p439
(dp440
g7
F15.65
sg13
I2932894
sg14
F4.35
sg15
g436
sg17
F11.29
sg18
I2911731712
sba(i__main__
BenchResult
p441
(dp442
g7
F15.88
sg13
I2932726
sg14
F4.41
sg15
g436
sg17
F11.45
sg18
I2908897280
sba(i__main__
BenchResult
p443
(dp444
g7
F15.94
sg13
I2932889
sg14
F4.42
sg15
g436
sg17
F11.5
sg18
I2912088064
sbasbaaatp445
Rp446
.