ccollections
OrderedDict
p0
((lp1
(lp2
S'Compile: Primes Functional'
p3
a(lp4
(i__main__
BenchResult
p5
(dp6
S'real'
p7
F0.29
sS'is_compile'
p8
I01
sS'name'
p9
S'Primes Functional'
p10
sS'language'
p11
S'Swift'
p12
sS'page_reclaims'
p13
I14158
sS'sys'
p14
F0.07
sS'command'
p15
S'swiftc -O /Users/terhechte/Development/crossplatform-language-benchmarks/sources/prime_swift.swift -o /Users/terhechte/Development/crossplatform-language-benchmarks/builds/prime_swift'
p16
sS'user'
p17
F0.16
sS'resident_set_size'
p18
I68796416
sba(i__main__
BenchResult
p19
(dp20
g7
F0.11
sg8
I01
sg9
g10
sg11
S'Rust'
p21
sg13
I15095
sg14
F0.03
sg15
S'rustc -O /Users/terhechte/Development/crossplatform-language-benchmarks/sources/prime_rust.rs -o /Users/terhechte/Development/crossplatform-language-benchmarks/builds/prime_rust'
p22
sg17
F0.1
sg18
I91734016
sba(i__main__
BenchResult
p23
(dp24
g7
F7.98
sg8
I01
sg9
g10
sg11
S'Kotlin'
p25
sg13
I89997
sg14
F0.67
sg15
S'kotlinc-native -opt -opt-in=kotlinx.cinterop.ExperimentalForeignApi /Users/terhechte/Development/crossplatform-language-benchmarks/sources/prime_kotlin.kt -o /Users/terhechte/Development/crossplatform-language-benchmarks/builds/prime_kotlin.kexe'
p26
sg17
F10.2
sg18
I705445888
sba(i__main__
BenchResult
p27
(dp28
g7
F0.34
sg8
I01
sg9
g10
sg11
S'C++'
p29
sg13
I9278
sg14
F0.03
sg15
S'clang++ -std=c++17 -O2 /Users/terhechte/Development/crossplatform-language-benchmarks/sources/prime_cpp.cpp -o /Users/terhechte/Development/crossplatform-language-benchmarks/builds/prime_cpp'
p30
sg17
F0.23
sg18
I89702400
sbaaa(lp31
g10
a(lp32
(i__main__
BenchResult
p33
(dp34
g7
F0.324
sg9
g10
sg11
g12
sg13
I220
sg14
F0.0
sg17
F0.29
sg18
I1651507
sS'fail'
p35
I00
sS'children'
p36
(lp37
(i__main__
BenchResult
p38
(dp39
g7
F0.46
sg13
I223
sg14
F0.0
sg15
S'/Users/terhechte/Development/crossplatform-language-benchmarks/builds/prime_swift'
p40
sg17
F0.29
sg18
I1687552
sba(i__main__
BenchResult
p41
(dp42
g7
F0.29
sg13
I212
sg14
F0.0
sg15
g40
sg17
F0.29
sg18
I1507328
sba(i__main__
BenchResult
p43
(dp44
g7
F0.29
sg13
I223
sg14
F0.0
sg15
g40
sg17
F0.29
sg18
I1687552
sba(i__main__
BenchResult
p45
(dp46
g7
F0.29
sg13
I223
sg14
F0.0
sg15
g40
sg17
F0.29
sg18
I1687552
sba(i__main__
BenchResult
p47
(dp48
g7
F0.29
sg13
I223
sg14
F0.0
sg15
g40
sg17
F0.29
sg18
I1687552
sbasba(i__main__
BenchResult
p49
(dp50
g7
F0.322
sg9
g10
sg11
g21
sg13
I194
sg14
F0.0
sg17
F0.29
sg18
I1330380
sg35
I00
sg36
(lp51
(i__main__
BenchResult
p52
(dp53
g7
F0.45
sg13
I196
sg14
F0.0
sg15
S'/Users/terhechte/Development/crossplatform-language-benchmarks/builds/prime_rust'
p54
sg17
F0.29
sg18
I1359872
sba(i__main__
BenchResult
p55
(dp56
g7
F0.29
sg13
I193
sg14
F0.0
sg15
g54
sg17
F0.29
sg18
I1310720
sba(i__main__
BenchResult
p57
(dp58
g7
F0.29
sg13
I193
sg14
F0.0
sg15
g54
sg17
F0.29
sg18
I1310720
sba(i__main__
BenchResult
p59
(dp60
g7
F0.29
sg13
I196
sg14
F0.0
sg15
g54
sg17
F0.29
sg18
I1359872
sba(i__main__
BenchResult
p61
(dp62
g7
F0.29
sg13
I193
sg14
F0.0
sg15
g54
sg17
F0.29
sg18
I1310720
sbasba(i__main__
BenchResult
p63
(dp64
g7
F0.35200000000000004
sg9
g10
sg11
g25
sg13
I390
sg14
F0.0
sg17
F0.32
sg18
I4092723
sg35
I00
sg36
(lp65
(i__main__
BenchResult
p66
(dp67
g7
F0.48
sg13
I390
sg14
F0.0
sg15
S'/Users/terhechte/Development/crossplatform-language-benchmarks/builds/prime_kotlin.kexe'
p68
sg17
F0.32
sg18
I4096000
sba(i__main__
BenchResult
p69
(dp70
g7
F0.32
sg13
I390
sg14
F0.0
sg15
g68
sg17
F0.32
sg18
I4096000
sba(i__main__
BenchResult
p71
(dp72
g7
F0.32
sg13
I390
sg14
F0.0
sg15
g68
sg17
F0.32
sg18
I4096000
sba(i__main__
BenchResult
p73
(dp74
g7
F0.32
sg13
I390
sg14
F0.0
sg15
g68
sg17
F0.32
sg18
I4079616
sba(i__main__
BenchResult
p75
(dp76
g7
F0.32
sg13
I391
sg14
F0.0
sg15
g68
sg17
F0.32
sg18
I4096000
sbasba(i__main__
BenchResult
p77
(dp78
g7
F0.324
sg9
g10
sg11
g29
sg13
I183
sg14
F0.0
sg17
F0.29
sg18
I1163264
sg35
I00
sg36
(lp79
(i__main__
BenchResult
p80
(dp81
g7
F0.46
sg13
I183
sg14
F0.0
sg15
S'/Users/terhechte/Development/crossplatform-language-benchmarks/builds/prime_cpp'
p82
sg17
F0.29
sg18
I1163264
sba(i__main__
BenchResult
p83
(dp84
g7
F0.29
sg13
I183
sg14
F0.0
sg15
g82
sg17
F0.29
sg18
I1163264
sba(i__main__
BenchResult
p85
(dp86
g7
F0.29
sg13
I183
sg14
F0.0
sg15
g82
sg17
F0.29
sg18
I1163264
sba(i__main__
BenchResult
p87
(dp88
g7
F0.29
sg13
I183
sg14
F0.0
sg15
g82
sg17
F0.29
sg18
I1163264
sba(i__main__
BenchResult
p89
(dp90
g7
F0.29
sg13
I183
sg14
F0.0
sg15
g82
sg17
F0.29
sg18
I1163264
sbasbaaa(lp91
S'Compile: Strings Functional'
p92
a(lp93
(i__main__
BenchResult
p94
(dp95
g7
F0.61
sg8
I01
sg9
S'Strings Functional'
p96
sg11
g12
sg13
I25493
sg14
F0.1
sg15
S'swiftc -O /Users/terhechte/Development/crossplatform-language-benchmarks/sources/strings_functional_swift.swift -o /Users/terhechte/Development/crossplatform-language-benchmarks/builds/strings_functional_swift'
p97
sg17
F0.44
sg18
I175636480
sba(i__main__
BenchResult
p98
(dp99
g7
F0.15
sg8
I01
sg9
g96
sg11
g21
sg13
I16737
sg14
F0.04
sg15
S'rustc -O /Users/terhechte/Development/crossplatform-language-benchmarks/sources/strings_functional_rust.rs -o /Users/terhechte/Development/crossplatform-language-benchmarks/builds/strings_functional_rust'
p100
sg17
F0.19
sg18
I107347968
sba(i__main__
BenchResult
p101
(dp102
g7
F9.19
sg8
I01
sg9
g96
sg11
g25
sg13
I119854
sg14
F0.79
sg15
S'kotlinc-native -opt -opt-in=kotlinx.cinterop.ExperimentalForeignApi /Users/terhechte/Development/crossplatform-language-benchmarks/sources/strings_functional_kotlin.kt -o /Users/terhechte/Development/crossplatform-language-benchmarks/builds/strings_functional_kotlin.kexe'
p103
sg17
F12.28
sg18
I1442070528
sba(i__main__
BenchResult
p104
(dp105
g7
F0.38
sg8
I01
sg9
g96
sg11
g29
sg13
I10023
sg14
F0.03
sg15
S'clang++ -std=c++17 -O2 /Users/terhechte/Development/crossplatform-language-benchmarks/sources/strings_functional_cpp.cpp -o /Users/terhechte/Development/crossplatform-language-benchmarks/builds/strings_functional_cpp'
p106
sg17
F0.34
sg18
I100745216
sbaaa(lp107
g96
a(lp108
(i__main__
BenchResult
p109
(dp110
g7
F2.052
sg9
g96
sg11
g12
sg13
I5515
sg14
F0.01
sg17
F2.0
sg18
I88142643
sg35
I00
sg36
(lp111
(i__main__
BenchResult
p112
(dp113
g7
F2.19
sg13
I5637
sg14
F0.01
sg15
S'/Users/terhechte/Development/crossplatform-language-benchmarks/builds/strings_functional_swift'
p114
sg17
F2.0
sg18
I90128384
sba(i__main__
BenchResult
p115
(dp116
g7
F2.02
sg13
I5523
sg14
F0.01
sg15
g114
sg17
F2.0
sg18
I88260608
sba(i__main__
BenchResult
p117
(dp118
g7
F2.02
sg13
I5640
sg14
F0.01
sg15
g114
sg17
F2.0
sg18
I90177536
sba(i__main__
BenchResult
p119
(dp120
g7
F2.01
sg13
I5126
sg14
F0.01
sg15
g114
sg17
F2.0
sg18
I81756160
sba(i__main__
BenchResult
p121
(dp122
g7
F2.02
sg13
I5653
sg14
F0.01
sg15
g114
sg17
F2.0
sg18
I90390528
sbasba(i__main__
BenchResult
p123
(dp124
g7
F0.05600000000000001
sg9
g96
sg11
g21
sg13
I590
sg14
F0.0
sg17
F0.02
sg18
I7818444
sg35
I00
sg36
(lp125
(i__main__
BenchResult
p126
(dp127
g7
F0.2
sg13
I588
sg14
F0.0
sg15
S'/Users/terhechte/Development/crossplatform-language-benchmarks/builds/strings_functional_rust'
p128
sg17
F0.02
sg18
I7782400
sba(i__main__
BenchResult
p129
(dp130
g7
F0.02
sg13
I591
sg14
F0.0
sg15
g128
sg17
F0.02
sg18
I7831552
sba(i__main__
BenchResult
p131
(dp132
g7
F0.02
sg13
I590
sg14
F0.0
sg15
g128
sg17
F0.02
sg18
I7815168
sba(i__main__
BenchResult
p133
(dp134
g7
F0.02
sg13
I591
sg14
F0.0
sg15
g128
sg17
F0.02
sg18
I7831552
sba(i__main__
BenchResult
p135
(dp136
g7
F0.02
sg13
I594
sg14
F0.0
sg15
g128
sg17
F0.02
sg18
I7831552
sbasba(i__main__
BenchResult
p137
(dp138
g7
F0.268
sg9
g96
sg11
g25
sg13
I9644
sg14
F0.02
sg17
F0.25
sg18
I153170739
sg35
I00
sg36
(lp139
(i__main__
BenchResult
p140
(dp141
g7
F0.42
sg13
I9642
sg14
F0.02
sg15
S'/Users/terhechte/Development/crossplatform-language-benchmarks/builds/strings_functional_kotlin.kexe'
p142
sg17
F0.25
sg18
I153141248
sba(i__main__
BenchResult
p143
(dp144
g7
F0.23
sg13
I9653
sg14
F0.02
sg15
g142
sg17
F0.25
sg18
I153305088
sba(i__main__
BenchResult
p145
(dp146
g7
F0.23
sg13
I9643
sg14
F0.02
sg15
g142
sg17
F0.25
sg18
I153141248
sba(i__main__
BenchResult
p147
(dp148
g7
F0.23
sg13
I9643
sg14
F0.02
sg15
g142
sg17
F0.25
sg18
I153141248
sba(i__main__
BenchResult
p149
(dp150
g7
F0.23
sg13
I9642
sg14
F0.02
sg15
g142
sg17
F0.25
sg18
I153124864
sbasba(i__main__
BenchResult
p151
(dp152
g7
F0.13599999999999998
sg9
g96
sg11
g29
sg13
I5737
sg14
F0.01
sg17
F0.09
sg18
I92169830
sg35
I00
sg36
(lp153
(i__main__
BenchResult
p154
(dp155
g7
F0.28
sg13
I5133
sg14
F0.01
sg15
S'/Users/terhechte/Development/crossplatform-language-benchmarks/builds/strings_functional_cpp'
p156
sg17
F0.09
sg18
I82264064
sba(i__main__
BenchResult
p157
(dp158
g7
F0.1
sg13
I6398
sg14
F0.01
sg15
g156
sg17
F0.09
sg18
I102989824
sba(i__main__
BenchResult
p159
(dp160
g7
F0.1
sg13
I6400
sg14
F0.01
sg15
g156
sg17
F0.09
sg18
I103022592
sba(i__main__
BenchResult
p161
(dp162
g7
F0.1
sg13
I5624
sg14
F0.01
sg15
g156
sg17
F0.09
sg18
I90308608
sba(i__main__
BenchResult
p163
(dp164
g7
F0.1
sg13
I5133
sg14
F0.01
sg15
g156
sg17
F0.09
sg18
I82264064
sbasbaaa(lp165
S'Compile: Strings Imperative'
p166
a(lp167
(i__main__
BenchResult
p168
(dp169
g7
F0.5
sg8
I01
sg9
S'Strings Imperative'
p170
sg11
g12
sg13
I25511
sg14
F0.1
sg15
S'swiftc -O /Users/terhechte/Development/crossplatform-language-benchmarks/sources/strings_imperative_swift.swift -o /Users/terhechte/Development/crossplatform-language-benchmarks/builds/strings_imperative_swift'
p171
sg17
F0.39
sg18
I173555712
sba(i__main__
BenchResult
p172
(dp173
g7
F0.16
sg8
I01
sg9
g170
sg11
g21
sg13
I16535
sg14
F0.04
sg15
S'rustc -O /Users/terhechte/Development/crossplatform-language-benchmarks/sources/strings_imperative_rust.rs -o /Users/terhechte/Development/crossplatform-language-benchmarks/builds/strings_imperative_rust'
p174
sg17
F0.19
sg18
I106397696
sba(i__main__
BenchResult
p175
(dp176
g7
F9.18
sg8
I01
sg9
g170
sg11
g25
sg13
I114935
sg14
F0.78
sg15
S'kotlinc-native -opt -opt-in=kotlinx.cinterop.ExperimentalForeignApi /Users/terhechte/Development/crossplatform-language-benchmarks/sources/strings_imperative_kotlin.kt -o /Users/terhechte/Development/crossplatform-language-benchmarks/builds/strings_imperative_kotlin.kexe'
p177
sg17
F12.38
sg18
I1369653248
sba(i__main__
BenchResult
p178
(dp179
g7
F0.34
sg8
I01
sg9
g170
sg11
g29
sg13
I9902
sg14
F0.03
sg15
S'clang++ -std=c++17 -O2 /Users/terhechte/Development/crossplatform-language-benchmarks/sources/strings_imperative_cpp.cpp -o /Users/terhechte/Development/crossplatform-language-benchmarks/builds/strings_imperative_cpp'
p180
sg17
F0.3
sg18
I98385920
sbaaa(lp181
g170
a(lp182
(i__main__
BenchResult
p183
(dp184
g7
F2.0439999999999996
sg9
g170
sg11
g12
sg13
I4723
sg14
F0.01
sg17
F1.998
sg18
I75153408
sg35
I00
sg36
(lp185
(i__main__
BenchResult
p186
(dp187
g7
F2.18
sg13
I4722
sg14
F0.01
sg15
S'/Users/terhechte/Development/crossplatform-language-benchmarks/builds/strings_imperative_swift'
p188
sg17
F2.0
sg18
I75137024
sba(i__main__
BenchResult
p189
(dp190
g7
F2.01
sg13
I4723
sg14
F0.01
sg15
g188
sg17
F2.0
sg18
I75153408
sba(i__main__
BenchResult
p191
(dp192
g7
F2.01
sg13
I4725
sg14
F0.01
sg15
g188
sg17
F2.0
sg18
I75186176
sba(i__main__
BenchResult
p193
(dp194
g7
F2.01
sg13
I4722
sg14
F0.01
sg15
g188
sg17
F2.0
sg18
I75137024
sba(i__main__
BenchResult
p195
(dp196
g7
F2.01
sg13
I4723
sg14
F0.01
sg15
g188
sg17
F1.99
sg18
I75153408
sbasba(i__main__
BenchResult
p197
(dp198
g7
F0.05199999999999999
sg9
g170
sg11
g21
sg13
I591
sg14
F0.0
sg17
F0.02
sg18
I7831552
sg35
I00
sg36
(lp199
(i__main__
BenchResult
p200
(dp201
g7
F0.18
sg13
I591
sg14
F0.0
sg15
S'/Users/terhechte/Development/crossplatform-language-benchmarks/builds/strings_imperative_rust'
p202
sg17
F0.02
sg18
I7831552
sba(i__main__
BenchResult
p203
(dp204
g7
F0.02
sg13
I591
sg14
F0.0
sg15
g202
sg17
F0.02
sg18
I7831552
sba(i__main__
BenchResult
p205
(dp206
g7
F0.02
sg13
I594
sg14
F0.0
sg15
g202
sg17
F0.02
sg18
I7831552
sba(i__main__
BenchResult
p207
(dp208
g7
F0.02
sg13
I591
sg14
F0.0
sg15
g202
sg17
F0.02
sg18
I7831552
sba(i__main__
BenchResult
p209
(dp210
g7
F0.02
sg13
I591
sg14
F0.0
sg15
g202
sg17
F0.02
sg18
I7831552
sbasba(i__main__
BenchResult
p211
(dp212
g7
F0.23199999999999998
sg9
g170
sg11
g25
sg13
I9642
sg14
F0.02
sg17
F0.22200000000000003
sg18
I153131417
sg35
I00
sg36
(lp213
(i__main__
BenchResult
p214
(dp215
g7
F0.36
sg13
I9640
sg14
F0.02
sg15
S'/Users/terhechte/Development/crossplatform-language-benchmarks/builds/strings_imperative_kotlin.kexe'
p216
sg17
F0.22
sg18
I153092096
sba(i__main__
BenchResult
p217
(dp218
g7
F0.2
sg13
I9639
sg14
F0.02
sg15
g216
sg17
F0.22
sg18
I153092096
sba(i__main__
BenchResult
p219
(dp220
g7
F0.2
sg13
I9640
sg14
F0.02
sg15
g216
sg17
F0.22
sg18
I153108480
sba(i__main__
BenchResult
p221
(dp222
g7
F0.2
sg13
I9640
sg14
F0.02
sg15
g216
sg17
F0.23
sg18
I153092096
sba(i__main__
BenchResult
p223
(dp224
g7
F0.2
sg13
I9651
sg14
F0.02
sg15
g216
sg17
F0.22
sg18
I153272320
sbasba(i__main__
BenchResult
p225
(dp226
g7
F0.11400000000000002
sg9
g170
sg11
g29
sg13
I1722
sg14
F0.0
sg17
F0.08
sg18
I26388070
sg35
I00
sg36
(lp227
(i__main__
BenchResult
p228
(dp229
g7
F0.25
sg13
I1721
sg14
F0.0
sg15
S'/Users/terhechte/Development/crossplatform-language-benchmarks/builds/strings_imperative_cpp'
p230
sg17
F0.08
sg18
I26361856
sba(i__main__
BenchResult
p231
(dp232
g7
F0.08
sg13
I1724
sg14
F0.0
sg15
g230
sg17
F0.08
sg18
I26411008
sba(i__main__
BenchResult
p233
(dp234
g7
F0.08
sg13
I1721
sg14
F0.0
sg15
g230
sg17
F0.08
sg18
I26361856
sba(i__main__
BenchResult
p235
(dp236
g7
F0.08
sg13
I1726
sg14
F0.0
sg15
g230
sg17
F0.08
sg18
I26443776
sba(i__main__
BenchResult
p237
(dp238
g7
F0.08
sg13
I1721
sg14
F0.0
sg15
g230
sg17
F0.08
sg18
I26361856
sbasbaaa(lp239
S'Compile: Chunks Functional'
p240
a(lp241
(i__main__
BenchResult
p242
(dp243
g7
F0.39
sg8
I01
sg9
S'Chunks Functional'
p244
sg11
g12
sg13
I17039
sg14
F0.05
sg15
S'swiftc -O /Users/terhechte/Development/crossplatform-language-benchmarks/sources/chunks_functional_swift.swift -o /Users/terhechte/Development/crossplatform-language-benchmarks/builds/chunks_functional_swift'
p245
sg17
F0.33
sg18
I89014272
sba(i__main__
BenchResult
p246
(dp247
g7
F0.14
sg8
I01
sg9
g244
sg11
g21
sg13
I16208
sg14
F0.03
sg15
S'rustc -O /Users/terhechte/Development/crossplatform-language-benchmarks/sources/chunks_functional_rust.rs -o /Users/terhechte/Development/crossplatform-language-benchmarks/builds/chunks_functional_rust'
p248
sg17
F0.17
sg18
I103972864
sba(i__main__
BenchResult
p249
(dp250
g7
F8.42
sg8
I01
sg9
g244
sg11
g25
sg13
I67398
sg14
F0.65
sg15
S'kotlinc-native -opt -opt-in=kotlinx.cinterop.ExperimentalForeignApi /Users/terhechte/Development/crossplatform-language-benchmarks/sources/chunks_functional_kotlin.kt -o /Users/terhechte/Development/crossplatform-language-benchmarks/builds/chunks_functional_kotlin.kexe'
p251
sg17
F11.01
sg18
I635289600
sba(i__main__
BenchResult
p252
(dp253
g7
F0.1
sg8
I01
sg9
g244
sg11
S'C'
p254
sg13
I6052
sg14
F0.02
sg15
S'clang -O2 /Users/terhechte/Development/crossplatform-language-benchmarks/sources/chunks_imperative_c.c -o /Users/terhechte/Development/crossplatform-language-benchmarks/builds/chunks_imperative_c'
p255
sg17
F0.05
sg18
I42991616
sbaaa(lp256
g244
a(lp257
(i__main__
BenchResult
p258
(dp259
g7
F3.9580000000000006
sg9
g244
sg11
g12
sg13
I108148
sg14
F0.3
sg17
F3.6079999999999997
sg18
I1769930752
sg35
I00
sg36
(lp260
(i__main__
BenchResult
p261
(dp262
g7
F4.08
sg13
I107270
sg14
F0.31
sg15
S'/Users/terhechte/Development/crossplatform-language-benchmarks/builds/chunks_functional_swift'
p263
sg17
F3.59
sg18
I1755545600
sba(i__main__
BenchResult
p264
(dp265
g7
F3.95
sg13
I108299
sg14
F0.3
sg15
g263
sg17
F3.64
sg18
I1772404736
sba(i__main__
BenchResult
p266
(dp267
g7
F3.94
sg13
I108303
sg14
F0.3
sg15
g263
sg17
F3.63
sg18
I1772421120
sba(i__main__
BenchResult
p268
(dp269
g7
F3.89
sg13
I108307
sg14
F0.3
sg15
g263
sg17
F3.56
sg18
I1772535808
sba(i__main__
BenchResult
p270
(dp271
g7
F3.93
sg13
I108564
sg14
F0.29
sg15
g263
sg17
F3.62
sg18
I1776746496
sbasba(i__main__
BenchResult
p272
(dp273
g7
F0.374
sg9
g244
sg11
g21
sg13
I66595
sg14
F0.1
sg17
F0.23000000000000004
sg18
I1065756262
sg35
I00
sg36
(lp274
(i__main__
BenchResult
p275
(dp276
g7
F0.5
sg13
I64962
sg14
F0.1
sg15
S'/Users/terhechte/Development/crossplatform-language-benchmarks/builds/chunks_functional_rust'
p277
sg17
F0.23
sg18
I1037320192
sba(i__main__
BenchResult
p278
(dp279
g7
F0.34
sg13
I64940
sg14
F0.1
sg15
g277
sg17
F0.23
sg18
I1028554752
sba(i__main__
BenchResult
p280
(dp281
g7
F0.35
sg13
I67519
sg14
F0.1
sg15
g277
sg17
F0.23
sg18
I1045659648
sba(i__main__
BenchResult
p282
(dp283
g7
F0.34
sg13
I67529
sg14
F0.1
sg15
g277
sg17
F0.23
sg18
I1104543744
sba(i__main__
BenchResult
p284
(dp285
g7
F0.34
sg13
I68027
sg14
F0.1
sg15
g277
sg17
F0.23
sg18
I1112702976
sbasba(i__main__
BenchResult
p286
(dp287
g7
F27.432
sg9
g244
sg11
g25
sg13
I970160
sg14
F3.082
sg17
F34.504
sg18
I8822285926
sg35
I00
sg36
(lp288
(i__main__
BenchResult
p289
(dp290
g7
F28.39
sg13
I990528
sg14
F3.8
sg15
S'/Users/terhechte/Development/crossplatform-language-benchmarks/builds/chunks_functional_kotlin.kexe'
p291
sg17
F35.54
sg18
I8786460672
sba(i__main__
BenchResult
p292
(dp293
g7
F27.43
sg13
I985785
sg14
F2.94
sg15
g291
sg17
F34.75
sg18
I8795537408
sba(i__main__
BenchResult
p294
(dp295
g7
F27.46
sg13
I976535
sg14
F2.96
sg15
g291
sg17
F34.79
sg18
I8823603200
sba(i__main__
BenchResult
p296
(dp297
g7
F26.23
sg13
I912123
sg14
F2.68
sg15
g291
sg17
F32.3
sg18
I8887599104
sba(i__main__
BenchResult
p298
(dp299
g7
F27.65
sg13
I985830
sg14
F3.03
sg15
g291
sg17
F35.14
sg18
I8818229248
sbasba(i__main__
BenchResult
p300
(dp301
g7
F0.182
sg9
g244
sg11
g254
sg13
I58774
sg14
F0.078
sg17
F0.05
sg18
I961160806
sg35
I00
sg36
(lp302
(i__main__
BenchResult
p303
(dp304
g7
F0.36
sg13
I58773
sg14
F0.08
sg15
S'/Users/terhechte/Development/crossplatform-language-benchmarks/builds/chunks_imperative_c'
p305
sg17
F0.05
sg18
I961134592
sba(i__main__
BenchResult
p306
(dp307
g7
F0.13
sg13
I58775
sg14
F0.08
sg15
g305
sg17
F0.05
sg18
I961167360
sba(i__main__
BenchResult
p308
(dp309
g7
F0.14
sg13
I58775
sg14
F0.08
sg15
g305
sg17
F0.05
sg18
I961167360
sba(i__main__
BenchResult
p310
(dp311
g7
F0.14
sg13
I58775
sg14
F0.08
sg15
g305
sg17
F0.05
sg18
I961167360
sba(i__main__
BenchResult
p312
(dp313
g7
F0.14
sg13
I58775
sg14
F0.07
sg15
g305
sg17
F0.05
sg18
I961167360
sbasbaaa(lp314
S'Compile: Chunks Imperative'
p315
a(lp316
(i__main__
BenchResult
p317
(dp318
g7
F0.48
sg8
I01
sg9
S'Chunks Imperative'
p319
sg11
g12
sg13
I13167
sg14
F0.09
sg15
S'swiftc -O /Users/terhechte/Development/crossplatform-language-benchmarks/sources/chunks_imperative_swift.swift -o /Users/terhechte/Development/crossplatform-language-benchmarks/builds/chunks_imperative_swift'
p320
sg17
F0.25
sg18
I77971456
sba(i__main__
BenchResult
p321
(dp322
g7
F0.4
sg8
I01
sg9
g319
sg11
g21
sg13
I10152
sg14
F0.1
sg15
S'rustc -O /Users/terhechte/Development/crossplatform-language-benchmarks/sources/chunks_imperative_rust.rs -o /Users/terhechte/Development/crossplatform-language-benchmarks/builds/chunks_imperative_rust'
p323
sg17
F0.18
sg18
I103464960
sba(i__main__
BenchResult
p324
(dp325
g7
F8.49
sg8
I01
sg9
g319
sg11
g25
sg13
I63643
sg14
F0.7
sg15
S'kotlinc-native -opt -opt-in=kotlinx.cinterop.ExperimentalForeignApi /Users/terhechte/Development/crossplatform-language-benchmarks/sources/chunks_imperative_kotlin.kt -o /Users/terhechte/Development/crossplatform-language-benchmarks/builds/chunks_imperative_kotlin.kexe'
p326
sg17
F10.69
sg18
I617840640
sba(i__main__
BenchResult
p327
(dp328
g7
F0.07
sg8
I01
sg9
g319
sg11
g254
sg13
I6195
sg14
F0.01
sg15
S'clang -O2 /Users/terhechte/Development/crossplatform-language-benchmarks/sources/chunks_imperative_c.c -o /Users/terhechte/Development/crossplatform-language-benchmarks/builds/chunks_imperative_c'
p329
sg17
F0.04
sg18
I42860544
sbaaa(lp330
g319
a(lp331
(i__main__
BenchResult
p332
(dp333
g7
F0.288
sg9
g319
sg11
g12
sg13
I58815
sg14
F0.082
sg17
F0.17
sg18
I961668710
sg35
I00
sg36
(lp334
(i__main__
BenchResult
p335
(dp336
g7
F0.43
sg13
I58824
sg14
F0.09
sg15
S'/Users/terhechte/Development/crossplatform-language-benchmarks/builds/chunks_imperative_swift'
p337
sg17
F0.17
sg18
I961806336
sba(i__main__
BenchResult
p338
(dp339
g7
F0.25
sg13
I58810
sg14
F0.08
sg15
g337
sg17
F0.17
sg18
I961576960
sba(i__main__
BenchResult
p340
(dp341
g7
F0.25
sg13
I58824
sg14
F0.08
sg15
g337
sg17
F0.17
sg18
I961806336
sba(i__main__
BenchResult
p342
(dp343
g7
F0.25
sg13
I58810
sg14
F0.08
sg15
g337
sg17
F0.17
sg18
I961576960
sba(i__main__
BenchResult
p344
(dp345
g7
F0.26
sg13
I58810
sg14
F0.08
sg15
g337
sg17
F0.17
sg18
I961576960
sbasba(i__main__
BenchResult
p346
(dp347
g7
F0.35800000000000004
sg9
g319
sg11
g21
sg13
I67717
sg14
F0.09
sg17
F0.22400000000000003
sg18
I1043415040
sg35
I00
sg36
(lp348
(i__main__
BenchResult
p349
(dp350
g7
F0.5
sg13
I68029
sg14
F0.1
sg15
S'/Users/terhechte/Development/crossplatform-language-benchmarks/builds/chunks_imperative_rust'
p351
sg17
F0.23
sg18
I1045594112
sba(i__main__
BenchResult
p352
(dp353
g7
F0.32
sg13
I71087
sg14
F0.09
sg15
g351
sg17
F0.23
sg18
I1048477696
sba(i__main__
BenchResult
p354
(dp355
g7
F0.32
sg13
I64940
sg14
F0.09
sg15
g351
sg17
F0.22
sg18
I978223104
sba(i__main__
BenchResult
p356
(dp357
g7
F0.33
sg13
I69058
sg14
F0.09
sg15
g351
sg17
F0.22
sg18
I1073954816
sba(i__main__
BenchResult
p358
(dp359
g7
F0.32
sg13
I65471
sg14
F0.08
sg15
g351
sg17
F0.22
sg18
I1070825472
sbasba(i__main__
BenchResult
p360
(dp361
g7
F1.186
sg9
g319
sg11
g25
sg13
I92773
sg14
F0.138
sg17
F1.222
sg18
I945284710
sg35
I00
sg36
(lp362
(i__main__
BenchResult
p363
(dp364
g7
F1.31
sg13
I91752
sg14
F0.14
sg15
S'/Users/terhechte/Development/crossplatform-language-benchmarks/builds/chunks_imperative_kotlin.kexe'
p365
sg17
F1.21
sg18
I963805184
sba(i__main__
BenchResult
p366
(dp367
g7
F1.16
sg13
I93880
sg14
F0.14
sg15
g365
sg17
F1.23
sg18
I967999488
sba(i__main__
BenchResult
p368
(dp369
g7
F1.15
sg13
I92824
sg14
F0.14
sg15
g365
sg17
F1.21
sg18
I940179456
sba(i__main__
BenchResult
p370
(dp371
g7
F1.16
sg13
I92672
sg14
F0.13
sg15
g365
sg17
F1.24
sg18
I911310848
sba(i__main__
BenchResult
p372
(dp373
g7
F1.15
sg13
I92741
sg14
F0.14
sg15
g365
sg17
F1.22
sg18
I943128576
sbasba(i__main__
BenchResult
p374
(dp375
g7
F0.154
sg9
g319
sg11
g254
sg13
I58775
sg14
F0.078
sg17
F0.05
sg18
I961167360
sg35
I00
sg36
(lp376
(i__main__
BenchResult
p377
(dp378
g7
F0.2
sg13
I58775
sg14
F0.08
sg15
S'/Users/terhechte/Development/crossplatform-language-benchmarks/builds/chunks_imperative_c'
p379
sg17
F0.05
sg18
I961167360
sba(i__main__
BenchResult
p380
(dp381
g7
F0.14
sg13
I58775
sg14
F0.08
sg15
g379
sg17
F0.05
sg18
I961167360
sba(i__main__
BenchResult
p382
(dp383
g7
F0.14
sg13
I58775
sg14
F0.07
sg15
g379
sg17
F0.05
sg18
I961167360
sba(i__main__
BenchResult
p384
(dp385
g7
F0.15
sg13
I58775
sg14
F0.09
sg15
g379
sg17
F0.05
sg18
I961167360
sba(i__main__
BenchResult
p386
(dp387
g7
F0.14
sg13
I58775
sg14
F0.07
sg15
g379
sg17
F0.05
sg18
I961167360
sbasbaaatp388
Rp389
.