ccollections
OrderedDict
p0
((lp1
(lp2
S'Compile: Primes Functional'
p3
a(lp4
(i__main__
BenchResult
p5
(dp6
S'real'
p7
F1.01
sS'is_compile'
p8
I01
sS'name'
p9
S'Primes Functional'
p10
sS'language'
p11
S'Swift'
p12
sS'page_reclaims'
p13
I15310
sS'sys'
p14
F0.45
sS'command'
p15
S'swiftc -O /Users/terhechte/Desktop/crossplatform-language-benchmarks/sources/prime_swift.swift -o /Users/terhechte/Desktop/crossplatform-language-benchmarks/builds/prime_swift'
p16
sS'user'
p17
F0.2
sS'resident_set_size'
p18
I40660992
sba(i__main__
BenchResult
p19
(dp20
g7
F0.99
sg8
I01
sg9
g10
sg11
S'Rust'
p21
sg13
I23801
sg14
F0.16
sg15
S'rustc -O /Users/terhechte/Desktop/crossplatform-language-benchmarks/sources/prime_rust.rs -o /Users/terhechte/Desktop/crossplatform-language-benchmarks/builds/prime_rust'
p22
sg17
F0.27
sg18
I66437120
sba(i__main__
BenchResult
p23
(dp24
g7
F0.0
sg8
I01
sg9
g10
sg11
S'Kotlin'
p25
sg13
I0
sg14
F0.0
sg15
S'/Users/terhechte/Downloads/kotlin-native-macos-0.9.2/bin/ -opt /Users/terhechte/Desktop/crossplatform-language-benchmarks/sources/prime_kotlin.kt -o /Users/terhechte/Desktop/crossplatform-language-benchmarks/builds/prime_kotlin.kexe'
p26
sg17
F0.0
sg18
I0
sba(i__main__
BenchResult
p27
(dp28
g7
F0.55
sg8
I01
sg9
g10
sg11
S'C++'
p29
sg13
I25287
sg14
F0.07
sg15
S'clang++ -std=c++17 -O2 /Users/terhechte/Desktop/crossplatform-language-benchmarks/sources/prime_cpp.cpp -o /Users/terhechte/Desktop/crossplatform-language-benchmarks/builds/prime_cpp'
p30
sg17
F0.46
sg18
I57180160
sbaaa(lp31
g10
a(lp32
(i__main__
BenchResult
p33
(dp34
g7
F3.152
sg9
g10
sg11
g12
sg13
I1428
sg14
F0.012
sg17
F3.1159999999999997
sg18
I5746688
sS'fail'
p35
I00
sS'children'
p36
(lp37
(i__main__
BenchResult
p38
(dp39
g7
F3.11
sg13
I1322
sg14
F0.02
sg15
S'/Users/terhechte/Desktop/crossplatform-language-benchmarks/builds/prime_swift'
p40
sg17
F3.06
sg18
I5730304
sba(i__main__
BenchResult
p41
(dp42
g7
F3.26
sg13
I1463
sg14
F0.02
sg15
g40
sg17
F3.2
sg18
I5783552
sba(i__main__
BenchResult
p43
(dp44
g7
F3.08
sg13
I1458
sg14
F0.0
sg15
g40
sg17
F3.07
sg18
I5763072
sba(i__main__
BenchResult
p45
(dp46
g7
F3.14
sg13
I1447
sg14
F0.01
sg15
g40
sg17
F3.12
sg18
I5718016
sba(i__main__
BenchResult
p47
(dp48
g7
F3.17
sg13
I1452
sg14
F0.01
sg15
g40
sg17
F3.13
sg18
I5738496
sbasba(i__main__
BenchResult
p49
(dp50
g7
F1.472
sg9
g10
sg11
g21
sg13
I284
sg14
F0.0
sg17
F1.4620000000000002
sg18
I1113292
sg35
I00
sg36
(lp51
(i__main__
BenchResult
p52
(dp53
g7
F1.47
sg13
I286
sg14
F0.0
sg15
S'/Users/terhechte/Desktop/crossplatform-language-benchmarks/builds/prime_rust'
p54
sg17
F1.46
sg18
I1118208
sba(i__main__
BenchResult
p55
(dp56
g7
F1.49
sg13
I283
sg14
F0.0
sg15
g54
sg17
F1.48
sg18
I1105920
sba(i__main__
BenchResult
p57
(dp58
g7
F1.5
sg13
I286
sg14
F0.0
sg15
g54
sg17
F1.48
sg18
I1118208
sba(i__main__
BenchResult
p59
(dp60
g7
F1.45
sg13
I283
sg14
F0.0
sg15
g54
sg17
F1.45
sg18
I1105920
sba(i__main__
BenchResult
p61
(dp62
g7
F1.45
sg13
I286
sg14
F0.0
sg15
g54
sg17
F1.44
sg18
I1118208
sbasba(i__main__
BenchResult
p63
(dp64
g7
F0.0
sg9
g10
sg11
g25
sg13
I0
sg14
F0.0
sg17
F0.0
sg18
I0
sg35
I00
sg36
(lp65
(i__main__
BenchResult
p66
(dp67
g7
F0.0
sg13
I0
sg14
F0.0
sg15
S'/Users/terhechte/Desktop/crossplatform-language-benchmarks/builds/prime_kotlin.kexe'
p68
sg17
F0.0
sg18
I0
sba(i__main__
BenchResult
p69
(dp70
g7
F0.0
sg13
I0
sg14
F0.0
sg15
g68
sg17
F0.0
sg18
I0
sba(i__main__
BenchResult
p71
(dp72
g7
F0.0
sg13
I0
sg14
F0.0
sg15
g68
sg17
F0.0
sg18
I0
sba(i__main__
BenchResult
p73
(dp74
g7
F0.0
sg13
I0
sg14
F0.0
sg15
g68
sg17
F0.0
sg18
I0
sba(i__main__
BenchResult
p75
(dp76
g7
F0.0
sg13
I0
sg14
F0.0
sg15
g68
sg17
F0.0
sg18
I0
sbasba(i__main__
BenchResult
p77
(dp78
g7
F1.448
sg9
g10
sg11
g29
sg13
I215
sg14
F0.0
sg17
F1.44
sg18
I831488
sg35
I00
sg36
(lp79
(i__main__
BenchResult
p80
(dp81
g7
F1.44
sg13
I215
sg14
F0.0
sg15
S'/Users/terhechte/Desktop/crossplatform-language-benchmarks/builds/prime_cpp'
p82
sg17
F1.43
sg18
I831488
sba(i__main__
BenchResult
p83
(dp84
g7
F1.44
sg13
I215
sg14
F0.0
sg15
g82
sg17
F1.43
sg18
I831488
sba(i__main__
BenchResult
p85
(dp86
g7
F1.44
sg13
I215
sg14
F0.0
sg15
g82
sg17
F1.44
sg18
I831488
sba(i__main__
BenchResult
p87
(dp88
g7
F1.45
sg13
I215
sg14
F0.0
sg15
g82
sg17
F1.44
sg18
I831488
sba(i__main__
BenchResult
p89
(dp90
g7
F1.47
sg13
I215
sg14
F0.0
sg15
g82
sg17
F1.46
sg18
I831488
sbasbaaa(lp91
S'Compile: Strings Functional'
p92
a(lp93
(i__main__
BenchResult
p94
(dp95
g7
F2.0
sg8
I01
sg9
S'Strings Functional'
p96
sg11
g12
sg13
I37471
sg14
F0.27
sg15
S'swiftc -O /Users/terhechte/Desktop/crossplatform-language-benchmarks/sources/strings_functional_swift.swift -o /Users/terhechte/Desktop/crossplatform-language-benchmarks/builds/strings_functional_swift'
p97
sg17
F1.39
sg18
I98459648
sba(i__main__
BenchResult
p98
(dp99
g7
F0.5
sg8
I01
sg9
g96
sg11
g21
sg13
I37104
sg14
F0.11
sg15
S'rustc -O /Users/terhechte/Desktop/crossplatform-language-benchmarks/sources/strings_functional_rust.rs -o /Users/terhechte/Desktop/crossplatform-language-benchmarks/builds/strings_functional_rust'
p100
sg17
F0.78
sg18
I82321408
sba(i__main__
BenchResult
p101
(dp102
g7
F0.0
sg8
I01
sg9
g96
sg11
g25
sg13
I0
sg14
F0.0
sg15
S'/Users/terhechte/Downloads/kotlin-native-macos-0.9.2/bin/ -opt /Users/terhechte/Desktop/crossplatform-language-benchmarks/sources/strings_functional_kotlin.kt -o /Users/terhechte/Desktop/crossplatform-language-benchmarks/builds/strings_functional_kotlin.kexe'
p103
sg17
F0.0
sg18
I0
sba(i__main__
BenchResult
p104
(dp105
g7
F0.95
sg8
I01
sg9
g96
sg11
g29
sg13
I28573
sg14
F0.08
sg15
S'clang++ -std=c++17 -O2 /Users/terhechte/Desktop/crossplatform-language-benchmarks/sources/strings_functional_cpp.cpp -o /Users/terhechte/Desktop/crossplatform-language-benchmarks/builds/strings_functional_cpp'
p106
sg17
F0.86
sg18
I70406144
sbaaa(lp107
g96
a(lp108
(i__main__
BenchResult
p109
(dp110
g7
F4.272
sg9
g96
sg11
g12
sg13
I49182
sg14
F0.094
sg17
F4.167999999999999
sg18
I201295462
sg35
I00
sg36
(lp111
(i__main__
BenchResult
p112
(dp113
g7
F4.45
sg13
I49095
sg14
F0.11
sg15
S'/Users/terhechte/Desktop/crossplatform-language-benchmarks/builds/strings_functional_swift'
p114
sg17
F4.32
sg18
I201388032
sba(i__main__
BenchResult
p115
(dp116
g7
F4.19
sg13
I49233
sg14
F0.09
sg15
g114
sg17
F4.09
sg18
I201388032
sba(i__main__
BenchResult
p117
(dp118
g7
F4.23
sg13
I49170
sg14
F0.09
sg15
g114
sg17
F4.13
sg18
I201129984
sba(i__main__
BenchResult
p119
(dp120
g7
F4.18
sg13
I49228
sg14
F0.09
sg15
g114
sg17
F4.08
sg18
I201367552
sba(i__main__
BenchResult
p121
(dp122
g7
F4.31
sg13
I49188
sg14
F0.09
sg15
g114
sg17
F4.22
sg18
I201203712
sbasba(i__main__
BenchResult
p123
(dp124
g7
F0.05
sg9
g96
sg11
g21
sg13
I2128
sg14
F0.0
sg17
F0.05
sg18
I8658944
sg35
I00
sg36
(lp125
(i__main__
BenchResult
p126
(dp127
g7
F0.05
sg13
I2128
sg14
F0.0
sg15
S'/Users/terhechte/Desktop/crossplatform-language-benchmarks/builds/strings_functional_rust'
p128
sg17
F0.05
sg18
I8658944
sba(i__main__
BenchResult
p129
(dp130
g7
F0.05
sg13
I2128
sg14
F0.0
sg15
g128
sg17
F0.05
sg18
I8658944
sba(i__main__
BenchResult
p131
(dp132
g7
F0.05
sg13
I2128
sg14
F0.0
sg15
g128
sg17
F0.05
sg18
I8658944
sba(i__main__
BenchResult
p133
(dp134
g7
F0.05
sg13
I2128
sg14
F0.0
sg15
g128
sg17
F0.05
sg18
I8658944
sba(i__main__
BenchResult
p135
(dp136
g7
F0.05
sg13
I2128
sg14
F0.0
sg15
g128
sg17
F0.05
sg18
I8658944
sbasba(i__main__
BenchResult
p137
(dp138
g7
F0.0
sg9
g96
sg11
g25
sg13
I0
sg14
F0.0
sg17
F0.0
sg18
I0
sg35
I00
sg36
(lp139
(i__main__
BenchResult
p140
(dp141
g7
F0.0
sg13
I0
sg14
F0.0
sg15
S'/Users/terhechte/Desktop/crossplatform-language-benchmarks/builds/strings_functional_kotlin.kexe'
p142
sg17
F0.0
sg18
I0
sba(i__main__
BenchResult
p143
(dp144
g7
F0.0
sg13
I0
sg14
F0.0
sg15
g142
sg17
F0.0
sg18
I0
sba(i__main__
BenchResult
p145
(dp146
g7
F0.0
sg13
I0
sg14
F0.0
sg15
g142
sg17
F0.0
sg18
I0
sba(i__main__
BenchResult
p147
(dp148
g7
F0.0
sg13
I0
sg14
F0.0
sg15
g142
sg17
F0.0
sg18
I0
sba(i__main__
BenchResult
p149
(dp150
g7
F0.0
sg13
I0
sg14
F0.0
sg15
g142
sg17
F0.0
sg18
I0
sbasba(i__main__
BenchResult
p151
(dp152
g7
F0.19
sg9
g96
sg11
g29
sg13
I20064
sg14
F0.027999999999999997
sg17
F0.152
sg18
I82134630
sg35
I00
sg36
(lp153
(i__main__
BenchResult
p154
(dp155
g7
F0.19
sg13
I20069
sg14
F0.03
sg15
S'/Users/terhechte/Desktop/crossplatform-language-benchmarks/builds/strings_functional_cpp'
p156
sg17
F0.15
sg18
I82153472
sba(i__main__
BenchResult
p157
(dp158
g7
F0.21
sg13
I20072
sg14
F0.03
sg15
g156
sg17
F0.16
sg18
I82165760
sba(i__main__
BenchResult
p159
(dp160
g7
F0.19
sg13
I20071
sg14
F0.03
sg15
g156
sg17
F0.15
sg18
I82161664
sba(i__main__
BenchResult
p161
(dp162
g7
F0.18
sg13
I20069
sg14
F0.03
sg15
g156
sg17
F0.15
sg18
I82153472
sba(i__main__
BenchResult
p163
(dp164
g7
F0.18
sg13
I20041
sg14
F0.02
sg15
g156
sg17
F0.15
sg18
I82038784
sbasbaaa(lp165
S'Compile: Strings Imperative'
p166
a(lp167
(i__main__
BenchResult
p168
(dp169
g7
F1.24
sg8
I01
sg9
S'Strings Imperative'
p170
sg11
g12
sg13
I39725
sg14
F0.12
sg15
S'swiftc -O /Users/terhechte/Desktop/crossplatform-language-benchmarks/sources/strings_imperative_swift.swift -o /Users/terhechte/Desktop/crossplatform-language-benchmarks/builds/strings_imperative_swift'
p171
sg17
F1.1
sg18
I90861568
sba(i__main__
BenchResult
p172
(dp173
g7
F0.5
sg8
I01
sg9
g170
sg11
g21
sg13
I37206
sg14
F0.11
sg15
S'rustc -O /Users/terhechte/Desktop/crossplatform-language-benchmarks/sources/strings_imperative_rust.rs -o /Users/terhechte/Desktop/crossplatform-language-benchmarks/builds/strings_imperative_rust'
p174
sg17
F0.73
sg18
I81518592
sba(i__main__
BenchResult
p175
(dp176
g7
F0.0
sg8
I01
sg9
g170
sg11
g25
sg13
I0
sg14
F0.0
sg15
S'/Users/terhechte/Downloads/kotlin-native-macos-0.9.2/bin/ -opt /Users/terhechte/Desktop/crossplatform-language-benchmarks/sources/strings_imperative_kotlin.kt -o /Users/terhechte/Desktop/crossplatform-language-benchmarks/builds/strings_imperative_kotlin.kexe'
p177
sg17
F0.0
sg18
I0
sba(i__main__
BenchResult
p178
(dp179
g7
F0.79
sg8
I01
sg9
g170
sg11
g29
sg13
I27413
sg14
F0.07
sg15
S'clang++ -std=c++17 -O2 /Users/terhechte/Desktop/crossplatform-language-benchmarks/sources/strings_imperative_cpp.cpp -o /Users/terhechte/Desktop/crossplatform-language-benchmarks/builds/strings_imperative_cpp'
p180
sg17
F0.7
sg18
I65703936
sbaaa(lp181
g170
a(lp182
(i__main__
BenchResult
p183
(dp184
g7
F3.4779999999999993
sg9
g170
sg11
g12
sg13
I49099
sg14
F0.08399999999999999
sg17
F3.3840000000000003
sg18
I200839987
sg35
I00
sg36
(lp185
(i__main__
BenchResult
p186
(dp187
g7
F3.54
sg13
I49091
sg14
F0.09
sg15
S'/Users/terhechte/Desktop/crossplatform-language-benchmarks/builds/strings_imperative_swift'
p188
sg17
F3.44
sg18
I200806400
sba(i__main__
BenchResult
p189
(dp190
g7
F3.48
sg13
I49121
sg14
F0.08
sg15
g188
sg17
F3.39
sg18
I200929280
sba(i__main__
BenchResult
p191
(dp192
g7
F3.38
sg13
I49110
sg14
F0.08
sg15
g188
sg17
F3.29
sg18
I200884224
sba(i__main__
BenchResult
p193
(dp194
g7
F3.59
sg13
I49092
sg14
F0.09
sg15
g188
sg17
F3.5
sg18
I200810496
sba(i__main__
BenchResult
p195
(dp196
g7
F3.4
sg13
I49082
sg14
F0.08
sg15
g188
sg17
F3.3
sg18
I200769536
sbasba(i__main__
BenchResult
p197
(dp198
g7
F0.05
sg9
g170
sg11
g21
sg13
I2127
sg14
F0.0
sg17
F0.04
sg18
I8658124
sg35
I00
sg36
(lp199
(i__main__
BenchResult
p200
(dp201
g7
F0.05
sg13
I2129
sg14
F0.0
sg15
S'/Users/terhechte/Desktop/crossplatform-language-benchmarks/builds/strings_imperative_rust'
p202
sg17
F0.04
sg18
I8663040
sba(i__main__
BenchResult
p203
(dp204
g7
F0.05
sg13
I2126
sg14
F0.0
sg15
g202
sg17
F0.04
sg18
I8650752
sba(i__main__
BenchResult
p205
(dp206
g7
F0.05
sg13
I2126
sg14
F0.0
sg15
g202
sg17
F0.04
sg18
I8650752
sba(i__main__
BenchResult
p207
(dp208
g7
F0.05
sg13
I2129
sg14
F0.0
sg15
g202
sg17
F0.04
sg18
I8663040
sba(i__main__
BenchResult
p209
(dp210
g7
F0.05
sg13
I2129
sg14
F0.0
sg15
g202
sg17
F0.04
sg18
I8663040
sbasba(i__main__
BenchResult
p211
(dp212
g7
F0.0
sg9
g170
sg11
g25
sg13
I0
sg14
F0.0
sg17
F0.0
sg18
I0
sg35
I00
sg36
(lp213
(i__main__
BenchResult
p214
(dp215
g7
F0.0
sg13
I0
sg14
F0.0
sg15
S'/Users/terhechte/Desktop/crossplatform-language-benchmarks/builds/strings_imperative_kotlin.kexe'
p216
sg17
F0.0
sg18
I0
sba(i__main__
BenchResult
p217
(dp218
g7
F0.0
sg13
I0
sg14
F0.0
sg15
g216
sg17
F0.0
sg18
I0
sba(i__main__
BenchResult
p219
(dp220
g7
F0.0
sg13
I0
sg14
F0.0
sg15
g216
sg17
F0.0
sg18
I0
sba(i__main__
BenchResult
p221
(dp222
g7
F0.0
sg13
I0
sg14
F0.0
sg15
g216
sg17
F0.0
sg18
I0
sba(i__main__
BenchResult
p223
(dp224
g7
F0.0
sg13
I0
sg14
F0.0
sg15
g216
sg17
F0.0
sg18
I0
sbasba(i__main__
BenchResult
p225
(dp226
g7
F0.13
sg9
g170
sg11
g29
sg13
I6372
sg14
F0.008
sg17
F0.12
sg18
I26050560
sg35
I00
sg36
(lp227
(i__main__
BenchResult
p228
(dp229
g7
F0.13
sg13
I6372
sg14
F0.01
sg15
S'/Users/terhechte/Desktop/crossplatform-language-benchmarks/builds/strings_imperative_cpp'
p230
sg17
F0.12
sg18
I26050560
sba(i__main__
BenchResult
p231
(dp232
g7
F0.13
sg13
I6372
sg14
F0.0
sg15
g230
sg17
F0.12
sg18
I26050560
sba(i__main__
BenchResult
p233
(dp234
g7
F0.13
sg13
I6372
sg14
F0.01
sg15
g230
sg17
F0.12
sg18
I26050560
sba(i__main__
BenchResult
p235
(dp236
g7
F0.13
sg13
I6372
sg14
F0.01
sg15
g230
sg17
F0.12
sg18
I26050560
sba(i__main__
BenchResult
p237
(dp238
g7
F0.13
sg13
I6372
sg14
F0.01
sg15
g230
sg17
F0.12
sg18
I26050560
sbasbaaa(lp239
S'Compile: Chunks Functional'
p240
a(lp241
(i__main__
BenchResult
p242
(dp243
g7
F0.87
sg8
I01
sg9
S'Chunks Functional'
p244
sg11
g12
sg13
I26329
sg14
F0.07
sg15
S'swiftc -O /Users/terhechte/Desktop/crossplatform-language-benchmarks/sources/chunks_functional_swift.swift -o /Users/terhechte/Desktop/crossplatform-language-benchmarks/builds/chunks_functional_swift'
p245
sg17
F0.78
sg18
I55283712
sba(i__main__
BenchResult
p246
(dp247
g7
F0.46
sg8
I01
sg9
g244
sg11
g21
sg13
I37025
sg14
F0.11
sg15
S'rustc -O /Users/terhechte/Desktop/crossplatform-language-benchmarks/sources/chunks_functional_rust.rs -o /Users/terhechte/Desktop/crossplatform-language-benchmarks/builds/chunks_functional_rust'
p248
sg17
F0.73
sg18
I80871424
sba(i__main__
BenchResult
p249
(dp250
g7
F0.0
sg8
I01
sg9
g244
sg11
g25
sg13
I0
sg14
F0.0
sg15
S'/Users/terhechte/Downloads/kotlin-native-macos-0.9.2/bin/ -opt /Users/terhechte/Desktop/crossplatform-language-benchmarks/sources/chunks_functional_kotlin.kt -o /Users/terhechte/Desktop/crossplatform-language-benchmarks/builds/chunks_functional_kotlin.kexe'
p251
sg17
F0.0
sg18
I0
sba(i__main__
BenchResult
p252
(dp253
g7
F0.19
sg8
I01
sg9
g244
sg11
S'C'
p254
sg13
I18548
sg14
F0.05
sg15
S'clang -O2 /Users/terhechte/Desktop/crossplatform-language-benchmarks/sources/chunks_imperative_c.c -o /Users/terhechte/Desktop/crossplatform-language-benchmarks/builds/chunks_imperative_c'
p255
sg17
F0.12
sg18
I31358976
sbaaa(lp256
g244
a(lp257
(i__main__
BenchResult
p258
(dp259
g7
F9.645999999999999
sg9
g244
sg11
g12
sg13
I653254
sg14
F1.092
sg17
F8.539999999999997
sg18
I1705803776
sg35
I00
sg36
(lp260
(i__main__
BenchResult
p261
(dp262
g7
F9.65
sg13
I652897
sg14
F1.1
sg15
S'/Users/terhechte/Desktop/crossplatform-language-benchmarks/builds/chunks_functional_swift'
p263
sg17
F8.53
sg18
I1705803776
sba(i__main__
BenchResult
p264
(dp265
g7
F9.62
sg13
I652533
sg14
F1.09
sg15
g263
sg17
F8.52
sg18
I1705803776
sba(i__main__
BenchResult
p266
(dp267
g7
F9.66
sg13
I653520
sg14
F1.11
sg15
g263
sg17
F8.54
sg18
I1705803776
sba(i__main__
BenchResult
p268
(dp269
g7
F9.68
sg13
I653765
sg14
F1.08
sg15
g263
sg17
F8.59
sg18
I1705811968
sba(i__main__
BenchResult
p270
(dp271
g7
F9.62
sg13
I653559
sg14
F1.08
sg15
g263
sg17
F8.52
sg18
I1705795584
sbasba(i__main__
BenchResult
p272
(dp273
g7
F0.9460000000000001
sg9
g244
sg11
g21
sg13
I268256
sg14
F0.384
sg17
F0.552
sg18
I990501273
sg35
I00
sg36
(lp274
(i__main__
BenchResult
p275
(dp276
g7
F0.99
sg13
I284481
sg14
F0.4
sg15
S'/Users/terhechte/Desktop/crossplatform-language-benchmarks/builds/chunks_functional_rust'
p277
sg17
F0.57
sg18
I1029902336
sba(i__main__
BenchResult
p278
(dp279
g7
F0.94
sg13
I268097
sg14
F0.39
sg15
g277
sg17
F0.55
sg18
I962793472
sba(i__main__
BenchResult
p280
(dp281
g7
F0.98
sg13
I284481
sg14
F0.4
sg15
g277
sg17
F0.57
sg18
I1029902336
sba(i__main__
BenchResult
p282
(dp283
g7
F0.95
sg13
I268094
sg14
F0.39
sg15
g277
sg17
F0.55
sg18
I962781184
sba(i__main__
BenchResult
p284
(dp285
g7
F0.87
sg13
I236130
sg14
F0.34
sg15
g277
sg17
F0.52
sg18
I967127040
sbasba(i__main__
BenchResult
p286
(dp287
g7
F0.0
sg9
g244
sg11
g25
sg13
I0
sg14
F0.0
sg17
F0.0
sg18
I0
sg35
I00
sg36
(lp288
(i__main__
BenchResult
p289
(dp290
g7
F0.0
sg13
I0
sg14
F0.0
sg15
S'/Users/terhechte/Desktop/crossplatform-language-benchmarks/builds/chunks_functional_kotlin.kexe'
p291
sg17
F0.0
sg18
I0
sba(i__main__
BenchResult
p292
(dp293
g7
F0.0
sg13
I0
sg14
F0.0
sg15
g291
sg17
F0.0
sg18
I0
sba(i__main__
BenchResult
p294
(dp295
g7
F0.0
sg13
I0
sg14
F0.0
sg15
g291
sg17
F0.0
sg18
I0
sba(i__main__
BenchResult
p296
(dp297
g7
F0.0
sg13
I0
sg14
F0.0
sg15
g291
sg17
F0.0
sg18
I0
sba(i__main__
BenchResult
p298
(dp299
g7
F0.0
sg13
I0
sg14
F0.0
sg15
g291
sg17
F0.0
sg18
I0
sbasba(i__main__
BenchResult
p300
(dp301
g7
F0.664
sg9
g244
sg11
g254
sg13
I234590
sg14
F0.34
sg17
F0.32
sg18
I960819200
sg35
I00
sg36
(lp302
(i__main__
BenchResult
p303
(dp304
g7
F0.67
sg13
I234591
sg14
F0.34
sg15
S'/Users/terhechte/Desktop/crossplatform-language-benchmarks/builds/chunks_imperative_c'
p305
sg17
F0.32
sg18
I960819200
sba(i__main__
BenchResult
p306
(dp307
g7
F0.66
sg13
I234590
sg14
F0.34
sg15
g305
sg17
F0.32
sg18
I960819200
sba(i__main__
BenchResult
p308
(dp309
g7
F0.66
sg13
I234591
sg14
F0.34
sg15
g305
sg17
F0.32
sg18
I960819200
sba(i__main__
BenchResult
p310
(dp311
g7
F0.67
sg13
I234591
sg14
F0.34
sg15
g305
sg17
F0.32
sg18
I960819200
sba(i__main__
BenchResult
p312
(dp313
g7
F0.66
sg13
I234590
sg14
F0.34
sg15
g305
sg17
F0.32
sg18
I960819200
sbasbaaa(lp314
S'Compile: Chunks Imperative'
p315
a(lp316
(i__main__
BenchResult
p317
(dp318
g7
F0.53
sg8
I01
sg9
S'Chunks Imperative'
p319
sg11
g12
sg13
I24631
sg14
F0.05
sg15
S'swiftc -O /Users/terhechte/Desktop/crossplatform-language-benchmarks/sources/chunks_imperative_swift.swift -o /Users/terhechte/Desktop/crossplatform-language-benchmarks/builds/chunks_imperative_swift'
p320
sg17
F0.46
sg18
I48279552
sba(i__main__
BenchResult
p321
(dp322
g7
F0.46
sg8
I01
sg9
g319
sg11
g21
sg13
I37093
sg14
F0.11
sg15
S'rustc -O /Users/terhechte/Desktop/crossplatform-language-benchmarks/sources/chunks_imperative_rust.rs -o /Users/terhechte/Desktop/crossplatform-language-benchmarks/builds/chunks_imperative_rust'
p323
sg17
F0.73
sg18
I80527360
sba(i__main__
BenchResult
p324
(dp325
g7
F0.0
sg8
I01
sg9
g319
sg11
g25
sg13
I0
sg14
F0.0
sg15
S'/Users/terhechte/Downloads/kotlin-native-macos-0.9.2/bin/ -opt /Users/terhechte/Desktop/crossplatform-language-benchmarks/sources/chunks_imperative_kotlin.kt -o /Users/terhechte/Desktop/crossplatform-language-benchmarks/builds/chunks_imperative_kotlin.kexe'
p326
sg17
F0.0
sg18
I0
sba(i__main__
BenchResult
p327
(dp328
g7
F0.18
sg8
I01
sg9
g319
sg11
g254
sg13
I18579
sg14
F0.04
sg15
S'clang -O2 /Users/terhechte/Desktop/crossplatform-language-benchmarks/sources/chunks_imperative_c.c -o /Users/terhechte/Desktop/crossplatform-language-benchmarks/builds/chunks_imperative_c'
p329
sg17
F0.12
sg18
I31490048
sbaaa(lp330
g319
a(lp331
(i__main__
BenchResult
p332
(dp333
g7
F0.8299999999999998
sg9
g319
sg11
g12
sg13
I235838
sg14
F0.34600000000000003
sg17
F0.47400000000000003
sg18
I965782732
sg35
I00
sg36
(lp334
(i__main__
BenchResult
p335
(dp336
g7
F0.86
sg13
I235845
sg14
F0.36
sg15
S'/Users/terhechte/Desktop/crossplatform-language-benchmarks/builds/chunks_imperative_swift'
p337
sg17
F0.49
sg18
I965808128
sba(i__main__
BenchResult
p338
(dp339
g7
F0.83
sg13
I235843
sg14
F0.35
sg15
g337
sg17
F0.47
sg18
I965799936
sba(i__main__
BenchResult
p340
(dp341
g7
F0.82
sg13
I235836
sg14
F0.34
sg15
g337
sg17
F0.47
sg18
I965771264
sba(i__main__
BenchResult
p342
(dp343
g7
F0.82
sg13
I235834
sg14
F0.34
sg15
g337
sg17
F0.47
sg18
I965763072
sba(i__main__
BenchResult
p344
(dp345
g7
F0.82
sg13
I235836
sg14
F0.34
sg15
g337
sg17
F0.47
sg18
I965771264
sbasba(i__main__
BenchResult
p346
(dp347
g7
F0.8860000000000001
sg9
g319
sg11
g21
sg13
I246922
sg14
F0.352
sg17
F0.524
sg18
I984278630
sg35
I00
sg36
(lp348
(i__main__
BenchResult
p349
(dp350
g7
F0.87
sg13
I243298
sg14
F0.34
sg15
S'/Users/terhechte/Desktop/crossplatform-language-benchmarks/builds/chunks_imperative_rust'
p351
sg17
F0.52
sg18
I996487168
sba(i__main__
BenchResult
p352
(dp353
g7
F0.88
sg13
I244057
sg14
F0.35
sg15
g351
sg17
F0.52
sg18
I999596032
sba(i__main__
BenchResult
p354
(dp355
g7
F0.87
sg13
I239961
sg14
F0.34
sg15
g351
sg17
F0.52
sg18
I982818816
sba(i__main__
BenchResult
p356
(dp357
g7
F0.95
sg13
I268097
sg14
F0.39
sg15
g351
sg17
F0.55
sg18
I962793472
sba(i__main__
BenchResult
p358
(dp359
g7
F0.86
sg13
I239199
sg14
F0.34
sg15
g351
sg17
F0.51
sg18
I979697664
sbasba(i__main__
BenchResult
p360
(dp361
g7
F0.0
sg9
g319
sg11
g25
sg13
I0
sg14
F0.0
sg17
F0.0
sg18
I0
sg35
I00
sg36
(lp362
(i__main__
BenchResult
p363
(dp364
g7
F0.0
sg13
I0
sg14
F0.0
sg15
S'/Users/terhechte/Desktop/crossplatform-language-benchmarks/builds/chunks_imperative_kotlin.kexe'
p365
sg17
F0.0
sg18
I0
sba(i__main__
BenchResult
p366
(dp367
g7
F0.0
sg13
I0
sg14
F0.0
sg15
g365
sg17
F0.0
sg18
I0
sba(i__main__
BenchResult
p368
(dp369
g7
F0.0
sg13
I0
sg14
F0.0
sg15
g365
sg17
F0.0
sg18
I0
sba(i__main__
BenchResult
p370
(dp371
g7
F0.0
sg13
I0
sg14
F0.0
sg15
g365
sg17
F0.0
sg18
I0
sba(i__main__
BenchResult
p372
(dp373
g7
F0.0
sg13
I0
sg14
F0.0
sg15
g365
sg17
F0.0
sg18
I0
sbasba(i__main__
BenchResult
p374
(dp375
g7
F0.6779999999999999
sg9
g319
sg11
g254
sg13
I234590
sg14
F0.34400000000000003
sg17
F0.322
sg18
I960819200
sg35
I00
sg36
(lp376
(i__main__
BenchResult
p377
(dp378
g7
F0.67
sg13
I234590
sg14
F0.34
sg15
S'/Users/terhechte/Desktop/crossplatform-language-benchmarks/builds/chunks_imperative_c'
p379
sg17
F0.32
sg18
I960819200
sba(i__main__
BenchResult
p380
(dp381
g7
F0.67
sg13
I234591
sg14
F0.34
sg15
g379
sg17
F0.32
sg18
I960819200
sba(i__main__
BenchResult
p382
(dp383
g7
F0.71
sg13
I234591
sg14
F0.36
sg15
g379
sg17
F0.33
sg18
I960819200
sba(i__main__
BenchResult
p384
(dp385
g7
F0.67
sg13
I234590
sg14
F0.34
sg15
g379
sg17
F0.32
sg18
I960819200
sba(i__main__
BenchResult
p386
(dp387
g7
F0.67
sg13
I234590
sg14
F0.34
sg15
g379
sg17
F0.32
sg18
I960819200
sbasbaaa(lp388
S'Compile: JSON'
p389
a(lp390
(i__main__
BenchResult
p391
(dp392
g7
F0.86
sg8
I01
sg9
S'JSON'
p393
sg11
g12
sg13
I34742
sg14
F0.12
sg15
S'swiftc -O /Users/terhechte/Desktop/crossplatform-language-benchmarks/sources/json_swift.swift -o /Users/terhechte/Desktop/crossplatform-language-benchmarks/builds/json_swift'
p394
sg17
F0.72
sg18
I70332416
sba(i__main__
BenchResult
p395
(dp396
g7
F39.81
sg8
I01
sg9
g393
sg11
g21
sg13
I806357
sg14
F3.59
sg15
S'cargo build --release'
p397
sg17
F145.28
sg18
I315355136
sbaaa(lp398
g393
a(lp399
(i__main__
BenchResult
p400
(dp401
g7
F3.9879999999999995
sg9
g393
sg11
g12
sg13
I23274
sg14
F0.048
sg17
F3.9159999999999995
sg18
I95151718
sg35
I00
sg36
(lp402
(i__main__
BenchResult
p403
(dp404
g7
F3.99
sg13
I23173
sg14
F0.06
sg15
S'/Users/terhechte/Desktop/crossplatform-language-benchmarks/builds/json_swift'
p405
sg17
F3.86
sg18
I95133696
sba(i__main__
BenchResult
p406
(dp407
g7
F4.08
sg13
I23302
sg14
F0.04
sg15
g405
sg17
F4.03
sg18
I95166464
sba(i__main__
BenchResult
p408
(dp409
g7
F3.94
sg13
I23299
sg14
F0.05
sg15
g405
sg17
F3.88
sg18
I95154176
sba(i__main__
BenchResult
p410
(dp411
g7
F4.0
sg13
I23300
sg14
F0.05
sg15
g405
sg17
F3.94
sg18
I95158272
sba(i__main__
BenchResult
p412
(dp413
g7
F3.93
sg13
I23297
sg14
F0.04
sg15
g405
sg17
F3.87
sg18
I95145984
sbasba(i__main__
BenchResult
p414
(dp415
g7
F0.156
sg9
g393
sg11
g21
sg13
I17600
sg14
F0.036000000000000004
sg17
F0.11000000000000001
sg18
I71969996
sg35
I00
sg36
(lp416
(i__main__
BenchResult
p417
(dp418
g7
F0.16
sg13
I17596
sg14
F0.04
sg15
S'/Users/terhechte/Desktop/crossplatform-language-benchmarks/builds/json_rust'
p419
sg17
F0.11
sg18
I71962624
sba(i__main__
BenchResult
p420
(dp421
g7
F0.15
sg13
I17603
sg14
F0.03
sg15
g419
sg17
F0.11
sg18
I71987200
sba(i__main__
BenchResult
p422
(dp423
g7
F0.15
sg13
I17600
sg14
F0.03
sg15
g419
sg17
F0.11
sg18
I71962624
sba(i__main__
BenchResult
p424
(dp425
g7
F0.16
sg13
I17602
sg14
F0.04
sg15
g419
sg17
F0.11
sg18
I71974912
sba(i__main__
BenchResult
p426
(dp427
g7
F0.16
sg13
I17600
sg14
F0.04
sg15
g419
sg17
F0.11
sg18
I71962624
sbasbaaatp428
Rp429
.