ccollections
OrderedDict
p0
((lp1
(lp2
S'Compile: Primes Functional'
p3
a(lp4
(i__main__
BenchResult
p5
(dp6
S'real'
p7
F0.41
sS'is_compile'
p8
I01
sS'name'
p9
S'Primes Functional'
p10
sS'language'
p11
S'Swift'
p12
sS'page_reclaims'
p13
F0.0
sS'sys'
p14
F0.13
sS'command'
p15
S'swiftc -O /root/crossplatform-language-benchmarks/sources/prime_swift.swift -o /root/crossplatform-language-benchmarks/builds/prime_swift'
p16
sS'user'
p17
F0.21
sS'resident_set_size'
p18
F74292.0
sba(i__main__
BenchResult
p19
(dp20
g7
F0.33
sg8
I01
sg9
g10
sg11
S'Rust'
p21
sg13
F0.0
sg14
F0.13
sg15
S'rustc -O /root/crossplatform-language-benchmarks/sources/prime_rust.rs -o /root/crossplatform-language-benchmarks/builds/prime_rust'
p22
sg17
F0.14
sg18
F120060.0
sba(i__main__
BenchResult
p23
(dp24
g7
F7.58
sg8
I01
sg9
g10
sg11
S'Kotlin'
p25
sg13
F0.0
sg14
F2.55
sg15
S'kotlinc -opt /root/crossplatform-language-benchmarks/sources/prime_kotlin.kt -o /root/crossplatform-language-benchmarks/builds/prime_kotlin.kexe'
p26
sg17
F10.38
sg18
F325852.0
sba(i__main__
BenchResult
p27
(dp28
g7
F0.21
sg8
I01
sg9
g10
sg11
S'C++'
p29
sg13
F0.0
sg14
F0.02
sg15
S'clang++ -std=c++14 -O2 /root/crossplatform-language-benchmarks/sources/prime_cpp.cpp -o /root/crossplatform-language-benchmarks/builds/prime_cpp'
p30
sg17
F0.18
sg18
F57708.0
sbaaa(lp31
g10
a(lp32
(i__main__
BenchResult
p33
(dp34
g7
F2.53
sg9
g10
sg11
g12
sg13
F0.0
sg14
F0.0
sg17
F2.52
sg18
F6632.0
sS'fail'
p35
I00
sS'children'
p36
(lp37
(i__main__
BenchResult
p38
(dp39
g7
F2.53
sg13
F0.0
sg14
F0.0
sg15
S'/root/crossplatform-language-benchmarks/builds/prime_swift'
p40
sg17
F2.52
sg18
F6632.0
sbasba(i__main__
BenchResult
p41
(dp42
g7
F0.87
sg9
g10
sg11
g21
sg13
F0.0
sg14
F0.0
sg17
F0.87
sg18
F1984.0
sg35
I00
sg36
(lp43
(i__main__
BenchResult
p44
(dp45
g7
F0.87
sg13
F0.0
sg14
F0.0
sg15
S'/root/crossplatform-language-benchmarks/builds/prime_rust'
p46
sg17
F0.87
sg18
F1984.0
sbasba(i__main__
BenchResult
p47
(dp48
g7
F67.17
sg9
g10
sg11
g25
sg13
F0.0
sg14
F0.0
sg17
F67.12
sg18
F2248.0
sg35
I00
sg36
(lp49
(i__main__
BenchResult
p50
(dp51
g7
F67.17
sg13
F0.0
sg14
F0.0
sg15
S'/root/crossplatform-language-benchmarks/builds/prime_kotlin.kexe'
p52
sg17
F67.12
sg18
F2248.0
sbasba(i__main__
BenchResult
p53
(dp54
g7
F0.88
sg9
g10
sg11
g29
sg13
F0.0
sg14
F0.0
sg17
F0.88
sg18
F3080.0
sg35
I00
sg36
(lp55
(i__main__
BenchResult
p56
(dp57
g7
F0.88
sg13
F0.0
sg14
F0.0
sg15
S'/root/crossplatform-language-benchmarks/builds/prime_cpp'
p58
sg17
F0.88
sg18
F3080.0
sbasbaaa(lp59
S'Compile: Strings Functional'
p60
a(lp61
(i__main__
BenchResult
p62
(dp63
g7
F2.05
sg8
I01
sg9
S'Strings Functional'
p64
sg11
g12
sg13
F0.0
sg14
F0.59
sg15
S'swiftc -O /root/crossplatform-language-benchmarks/sources/strings_functional_swift.swift -o /root/crossplatform-language-benchmarks/builds/strings_functional_swift'
p65
sg17
F1.42
sg18
F125176.0
sba(i__main__
BenchResult
p66
(dp67
g7
F0.32
sg8
I01
sg9
g64
sg11
g21
sg13
F0.0
sg14
F0.07
sg15
S'rustc -O /root/crossplatform-language-benchmarks/sources/strings_functional_rust.rs -o /root/crossplatform-language-benchmarks/builds/strings_functional_rust'
p68
sg17
F0.45
sg18
F141380.0
sba(i__main__
BenchResult
p69
(dp70
g7
F9.49
sg8
I01
sg9
g64
sg11
g25
sg13
F0.0
sg14
F3.13
sg15
S'kotlinc -opt /root/crossplatform-language-benchmarks/sources/strings_functional_kotlin.kt -o /root/crossplatform-language-benchmarks/builds/strings_functional_kotlin.kexe'
p71
sg17
F12.94
sg18
F314672.0
sba(i__main__
BenchResult
p72
(dp73
g7
F0.44
sg8
I01
sg9
g64
sg11
g29
sg13
F0.0
sg14
F0.03
sg15
S'clang++ -std=c++14 -O2 /root/crossplatform-language-benchmarks/sources/strings_functional_cpp.cpp -o /root/crossplatform-language-benchmarks/builds/strings_functional_cpp'
p74
sg17
F0.41
sg18
F66076.0
sbaaa(lp75
g64
a(lp76
(i__main__
BenchResult
p77
(dp78
g7
F3.92
sg9
g64
sg11
g12
sg13
F0.0
sg14
F0.05
sg17
F3.83
sg18
F86836.0
sg35
I00
sg36
(lp79
(i__main__
BenchResult
p80
(dp81
g7
F3.92
sg13
F0.0
sg14
F0.05
sg15
S'/root/crossplatform-language-benchmarks/builds/strings_functional_swift'
p82
sg17
F3.83
sg18
F86836.0
sbasba(i__main__
BenchResult
p83
(dp84
g7
F0.03
sg9
g64
sg11
g21
sg13
F0.0
sg14
F0.0
sg17
F0.03
sg18
F8276.0
sg35
I00
sg36
(lp85
(i__main__
BenchResult
p86
(dp87
g7
F0.03
sg13
F0.0
sg14
F0.0
sg15
S'/root/crossplatform-language-benchmarks/builds/strings_functional_rust'
p88
sg17
F0.03
sg18
F8276.0
sbasba(i__main__
BenchResult
p89
(dp90
g7
F1.87
sg9
g64
sg11
g25
sg13
F0.0
sg14
F0.24
sg17
F1.62
sg18
F550228.0
sg35
I00
sg36
(lp91
(i__main__
BenchResult
p92
(dp93
g7
F1.87
sg13
F0.0
sg14
F0.24
sg15
S'/root/crossplatform-language-benchmarks/builds/strings_functional_kotlin.kexe'
p94
sg17
F1.62
sg18
F550228.0
sbasba(i__main__
BenchResult
p95
(dp96
g7
F0.0
sg9
g64
sg11
g29
sg13
F0.0
sg14
F0.0
sg17
F0.0
sg18
F1312.0
sg35
I00
sg36
(lp97
(i__main__
BenchResult
p98
(dp99
g7
F0.0
sg13
F0.0
sg14
F0.0
sg15
S'/root/crossplatform-language-benchmarks/builds/strings_functional_cpp'
p100
sg17
F0.0
sg18
F1312.0
sbasbaaa(lp101
S'Compile: Strings Imperative'
p102
a(lp103
(i__main__
BenchResult
p104
(dp105
g7
F1.51
sg8
I01
sg9
S'Strings Imperative'
p106
sg11
g12
sg13
F0.0
sg14
F0.36
sg15
S'swiftc -O /root/crossplatform-language-benchmarks/sources/strings_imperative_swift.swift -o /root/crossplatform-language-benchmarks/builds/strings_imperative_swift'
p107
sg17
F1.14
sg18
F118188.0
sba(i__main__
BenchResult
p108
(dp109
g7
F0.31
sg8
I01
sg9
g106
sg11
g21
sg13
F0.0
sg14
F0.08
sg15
S'rustc -O /root/crossplatform-language-benchmarks/sources/strings_imperative_rust.rs -o /root/crossplatform-language-benchmarks/builds/strings_imperative_rust'
p110
sg17
F0.41
sg18
F136080.0
sba(i__main__
BenchResult
p111
(dp112
g7
F8.62
sg8
I01
sg9
g106
sg11
g25
sg13
F0.0
sg14
F2.88
sg15
S'kotlinc -opt /root/crossplatform-language-benchmarks/sources/strings_imperative_kotlin.kt -o /root/crossplatform-language-benchmarks/builds/strings_imperative_kotlin.kexe'
p113
sg17
F11.6
sg18
F326832.0
sba(i__main__
BenchResult
p114
(dp115
g7
F0.44
sg8
I01
sg9
g106
sg11
g29
sg13
F0.0
sg14
F0.01
sg15
S'clang++ -std=c++14 -O2 /root/crossplatform-language-benchmarks/sources/strings_imperative_cpp.cpp -o /root/crossplatform-language-benchmarks/builds/strings_imperative_cpp'
p116
sg17
F0.42
sg18
F65504.0
sbaaa(lp117
g106
a(lp118
(i__main__
BenchResult
p119
(dp120
g7
F3.39
sg9
g106
sg11
g12
sg13
F0.0
sg14
F0.04
sg17
F3.34
sg18
F85644.0
sg35
I00
sg36
(lp121
(i__main__
BenchResult
p122
(dp123
g7
F3.39
sg13
F0.0
sg14
F0.04
sg15
S'/root/crossplatform-language-benchmarks/builds/strings_imperative_swift'
p124
sg17
F3.34
sg18
F85644.0
sbasba(i__main__
BenchResult
p125
(dp126
g7
F0.03
sg9
g106
sg11
g21
sg13
F0.0
sg14
F0.0
sg17
F0.03
sg18
F8244.0
sg35
I00
sg36
(lp127
(i__main__
BenchResult
p128
(dp129
g7
F0.03
sg13
F0.0
sg14
F0.0
sg15
S'/root/crossplatform-language-benchmarks/builds/strings_imperative_rust'
p130
sg17
F0.03
sg18
F8244.0
sbasba(i__main__
BenchResult
p131
(dp132
g7
F1.29
sg9
g106
sg11
g25
sg13
F0.0
sg14
F0.2
sg17
F1.09
sg18
F550228.0
sg35
I00
sg36
(lp133
(i__main__
BenchResult
p134
(dp135
g7
F1.29
sg13
F0.0
sg14
F0.2
sg15
S'/root/crossplatform-language-benchmarks/builds/strings_imperative_kotlin.kexe'
p136
sg17
F1.09
sg18
F550228.0
sbasba(i__main__
BenchResult
p137
(dp138
g7
F0.0
sg9
g106
sg11
g29
sg13
F0.0
sg14
F0.0
sg17
F0.0
sg18
F1108.0
sg35
I00
sg36
(lp139
(i__main__
BenchResult
p140
(dp141
g7
F0.0
sg13
F0.0
sg14
F0.0
sg15
S'/root/crossplatform-language-benchmarks/builds/strings_imperative_cpp'
p142
sg17
F0.0
sg18
F1108.0
sbasbaaa(lp143
S'Compile: Chunks Functional'
p144
a(lp145
(i__main__
BenchResult
p146
(dp147
g7
F1.3
sg8
I01
sg9
S'Chunks Functional'
p148
sg11
g12
sg13
F0.0
sg14
F0.52
sg15
S'swiftc -O /root/crossplatform-language-benchmarks/sources/chunks_functional_swift.swift -o /root/crossplatform-language-benchmarks/builds/chunks_functional_swift'
p149
sg17
F0.77
sg18
F85820.0
sba(i__main__
BenchResult
p150
(dp151
g7
F0.36
sg8
I01
sg9
g148
sg11
g21
sg13
F0.0
sg14
F0.05
sg15
S'rustc -O /root/crossplatform-language-benchmarks/sources/chunks_functional_rust.rs -o /root/crossplatform-language-benchmarks/builds/chunks_functional_rust'
p152
sg17
F0.47
sg18
F136504.0
sba(i__main__
BenchResult
p153
(dp154
g7
F9.33
sg8
I01
sg9
g148
sg11
g25
sg13
F0.0
sg14
F2.95
sg15
S'kotlinc -opt /root/crossplatform-language-benchmarks/sources/chunks_functional_kotlin.kt -o /root/crossplatform-language-benchmarks/builds/chunks_functional_kotlin.kexe'
p155
sg17
F12.31
sg18
F327956.0
sba(i__main__
BenchResult
p156
(dp157
g7
F0.3
sg8
I01
sg9
g148
sg11
S'C'
p158
sg13
F0.0
sg14
F0.12
sg15
S'clang -O2 /root/crossplatform-language-benchmarks/sources/chunks_imperative_c.c -o /root/crossplatform-language-benchmarks/builds/chunks_imperative_c'
p159
sg17
F0.1
sg18
F46164.0
sbaaa(lp160
g148
a(lp161
(i__main__
BenchResult
p162
(dp163
g7
F7.17
sg9
g148
sg11
g12
sg13
F0.0
sg14
F0.68
sg17
F6.47
sg18
F1594676.0
sg35
I00
sg36
(lp164
(i__main__
BenchResult
p165
(dp166
g7
F7.17
sg13
F0.0
sg14
F0.68
sg15
S'/root/crossplatform-language-benchmarks/builds/chunks_functional_swift'
p167
sg17
F6.47
sg18
F1594676.0
sbasba(i__main__
BenchResult
p168
(dp169
g7
F0.53
sg9
g148
sg11
g21
sg13
F0.0
sg14
F0.24
sg17
F0.29
sg18
F939528.0
sg35
I00
sg36
(lp170
(i__main__
BenchResult
p171
(dp172
g7
F0.53
sg13
F0.0
sg14
F0.24
sg15
S'/root/crossplatform-language-benchmarks/builds/chunks_functional_rust'
p173
sg17
F0.29
sg18
F939528.0
sbasba(i__main__
BenchResult
p174
(dp175
g7
F142.73
sg9
g148
sg11
g25
sg13
F0.0
sg14
F22.65
sg17
F85.58
sg18
F1909232.0
sg35
I00
sg36
(lp176
(i__main__
BenchResult
p177
(dp178
g7
F142.73
sg13
F0.0
sg14
F22.65
sg15
S'/root/crossplatform-language-benchmarks/builds/chunks_functional_kotlin.kexe'
p179
sg17
F85.58
sg18
F1909232.0
sbasba(i__main__
BenchResult
p180
(dp181
g7
F0.45
sg9
g148
sg11
g158
sg13
F0.0
sg14
F0.29
sg17
F0.16
sg18
F938500.0
sg35
I00
sg36
(lp182
(i__main__
BenchResult
p183
(dp184
g7
F0.45
sg13
F0.0
sg14
F0.29
sg15
S'/root/crossplatform-language-benchmarks/builds/chunks_imperative_c'
p185
sg17
F0.16
sg18
F938500.0
sbasbaaa(lp186
S'Compile: Chunks Imperative'
p187
a(lp188
(i__main__
BenchResult
p189
(dp190
g7
F0.94
sg8
I01
sg9
S'Chunks Imperative'
p191
sg11
g12
sg13
F0.0
sg14
F0.43
sg15
S'swiftc -O /root/crossplatform-language-benchmarks/sources/chunks_imperative_swift.swift -o /root/crossplatform-language-benchmarks/builds/chunks_imperative_swift'
p192
sg17
F0.39
sg18
F84612.0
sba(i__main__
BenchResult
p193
(dp194
g7
F0.49
sg8
I01
sg9
g191
sg11
g21
sg13
F0.0
sg14
F0.19
sg15
S'rustc -O /root/crossplatform-language-benchmarks/sources/chunks_imperative_rust.rs -o /root/crossplatform-language-benchmarks/builds/chunks_imperative_rust'
p195
sg17
F0.38
sg18
F137828.0
sba(i__main__
BenchResult
p196
(dp197
g7
F10.78
sg8
I01
sg9
g191
sg11
g25
sg13
F0.0
sg14
F3.06
sg15
S'kotlinc -opt /root/crossplatform-language-benchmarks/sources/chunks_imperative_kotlin.kt -o /root/crossplatform-language-benchmarks/builds/chunks_imperative_kotlin.kexe'
p198
sg17
F13.93
sg18
F303432.0
sba(i__main__
BenchResult
p199
(dp200
g7
F0.13
sg8
I01
sg9
g191
sg11
g158
sg13
F0.0
sg14
F0.01
sg15
S'clang -O2 /root/crossplatform-language-benchmarks/sources/chunks_imperative_c.c -o /root/crossplatform-language-benchmarks/builds/chunks_imperative_c'
p201
sg17
F0.11
sg18
F46376.0
sbaaa(lp202
g191
a(lp203
(i__main__
BenchResult
p204
(dp205
g7
F0.5
sg9
g191
sg11
g12
sg13
F0.0
sg14
F0.2
sg17
F0.29
sg18
F943304.0
sg35
I00
sg36
(lp206
(i__main__
BenchResult
p207
(dp208
g7
F0.5
sg13
F0.0
sg14
F0.2
sg15
S'/root/crossplatform-language-benchmarks/builds/chunks_imperative_swift'
p209
sg17
F0.29
sg18
F943304.0
sbasba(i__main__
BenchResult
p210
(dp211
g7
F0.54
sg9
g191
sg11
g21
sg13
F0.0
sg14
F0.21
sg17
F0.33
sg18
F939456.0
sg35
I00
sg36
(lp212
(i__main__
BenchResult
p213
(dp214
g7
F0.54
sg13
F0.0
sg14
F0.21
sg15
S'/root/crossplatform-language-benchmarks/builds/chunks_imperative_rust'
p215
sg17
F0.33
sg18
F939456.0
sbasba(i__main__
BenchResult
p216
(dp217
g7
F9.12
sg9
g191
sg11
g25
sg13
F0.0
sg14
F0.2
sg17
F8.88
sg18
F470664.0
sg35
I00
sg36
(lp218
(i__main__
BenchResult
p219
(dp220
g7
F9.12
sg13
F0.0
sg14
F0.2
sg15
S'/root/crossplatform-language-benchmarks/builds/chunks_imperative_kotlin.kexe'
p221
sg17
F8.88
sg18
F470664.0
sbasba(i__main__
BenchResult
p222
(dp223
g7
F0.44
sg9
g191
sg11
g158
sg13
F0.0
sg14
F0.26
sg17
F0.18
sg18
F938520.0
sg35
I00
sg36
(lp224
(i__main__
BenchResult
p225
(dp226
g7
F0.44
sg13
F0.0
sg14
F0.26
sg15
S'/root/crossplatform-language-benchmarks/builds/chunks_imperative_c'
p227
sg17
F0.18
sg18
F938520.0
sbasbaaatp228
Rp229
.